(lp0
(lp1
I128
aI128
aa(lp2
(lp3
S'water'
p4
ag4
ag4
ag4
ag4
ag4
ag4
ag4
ag4
ag4
ag4
ag4
ag4
ag4
ag4
ag4
ag4
ag4
ag4
ag4
ag4
ag4
ag4
ag4
ag4
ag4
ag4
ag4
ag4
ag4
ag4
ag4
ag4
ag4
ag4
ag4
ag4
ag4
ag4
ag4
ag4
ag4
ag4
ag4
ag4
ag4
ag4
aS'sand'
p5
ag5
ag4
ag4
ag4
ag4
ag4
ag4
ag4
ag4
ag4
ag4
ag4
ag4
ag4
ag4
ag4
ag4
ag4
ag4
ag4
ag4
ag4
ag4
ag4
ag4
ag4
ag4
ag4
ag4
ag4
ag4
ag4
ag4
ag4
ag4
ag4
ag4
ag4
ag4
ag4
ag4
ag4
ag4
ag4
ag4
ag4
ag4
ag4
ag5
ag5
ag5
ag5
ag5
ag4
ag4
ag4
ag4
ag4
ag4
ag4
ag4
ag4
ag4
ag4
ag4
ag4
ag4
ag4
ag4
ag4
ag4
ag4
ag4
ag4
ag4
ag4
ag4
ag4
ag4
ag4
aa(lp6
g4
ag4
ag4
ag4
ag4
ag4
ag4
ag4
ag4
ag4
ag4
ag4
ag4
ag4
ag4
ag4
ag4
ag4
ag4
ag4
ag4
ag4
ag4
ag4
ag4
ag4
ag4
ag4
ag4
ag4
ag4
ag4
ag4
ag4
ag4
ag4
ag4
ag4
ag4
ag4
ag4
ag4
ag4
ag4
ag4
ag4
ag4
ag5
ag4
ag4
ag4
ag4
ag4
ag4
ag4
ag4
ag4
ag4
ag4
ag4
ag4
ag4
ag4
ag4
ag4
ag4
ag4
ag4
ag4
ag4
ag4
ag4
ag4
ag4
ag4
ag4
ag4
ag4
ag4
ag4
ag4
ag4
ag4
ag4
ag4
ag4
ag4
ag4
ag4
ag4
ag4
ag4
ag4
ag4
ag4
ag4
ag5
ag5
ag5
ag4
ag4
ag4
ag4
ag4
ag4
ag4
ag4
ag4
ag4
ag4
ag4
ag4
ag4
ag4
ag4
ag4
ag4
ag4
ag4
ag4
ag4
ag4
ag4
ag4
ag4
ag4
ag4
ag4
aa(lp7
g4
ag4
ag4
ag4
ag4
ag4
ag4
ag4
ag4
ag4
ag4
ag4
ag4
ag4
ag4
ag4
ag4
ag4
ag4
ag4
ag4
ag4
ag4
ag4
ag4
ag4
ag4
ag4
ag4
ag4
ag4
ag4
ag4
ag4
ag4
ag4
ag4
ag4
ag4
ag4
ag4
ag4
ag4
ag4
ag4
ag4
ag4
ag4
ag4
ag4
ag4
ag4
ag4
ag4
ag4
ag4
ag4
ag4
ag4
ag4
ag4
ag4
ag4
ag4
ag4
ag4
ag4
ag4
ag4
ag4
ag4
ag4
ag4
ag4
ag4
ag4
ag4
ag4
ag4
ag4
ag4
ag4
ag4
ag4
ag4
ag4
ag4
ag4
ag4
ag4
ag4
ag4
ag4
ag4
ag4
ag4
ag4
ag4
ag4
ag4
ag4
ag4
ag4
ag4
ag4
ag4
ag4
ag4
ag4
ag4
ag4
ag4
ag4
ag4
ag4
ag4
ag4
ag4
ag4
ag4
ag4
ag4
ag4
ag4
ag4
ag4
ag4
ag4
aa(lp8
g4
ag4
ag4
ag4
ag4
ag4
ag4
ag4
ag4
ag4
ag4
ag4
ag4
ag4
ag4
ag4
ag4
ag4
ag4
ag4
ag4
ag4
ag4
ag4
ag4
ag4
ag4
ag4
ag4
ag4
ag4
ag4
ag4
ag4
ag4
ag4
ag4
ag4
ag4
ag4
ag4
ag4
ag4
ag4
ag4
ag4
ag4
ag4
ag4
ag4
ag4
ag4
ag4
ag4
ag4
ag4
ag4
ag4
ag4
ag4
ag4
ag4
ag4
ag4
ag4
ag4
ag4
ag4
ag4
ag4
ag4
ag4
ag4
ag4
ag4
ag4
ag4
ag4
ag4
ag4
ag4
ag4
ag4
ag4
ag4
ag4
ag4
ag4
ag4
ag4
ag4
ag4
ag4
ag4
ag4
ag4
ag4
ag4
ag4
ag4
ag4
ag4
ag4
ag4
ag4
ag4
ag4
ag4
ag4
ag4
ag4
ag4
ag4
ag4
ag4
ag4
ag4
ag4
ag4
ag4
ag4
ag4
ag4
ag4
ag4
ag4
ag4
ag4
aa(lp9
g4
ag4
ag4
ag4
ag4
ag4
ag4
ag4
ag4
ag4
ag4
ag4
ag4
ag4
ag4
ag4
ag4
ag4
ag4
ag4
ag4
ag4
ag4
ag4
ag4
ag4
ag4
ag4
ag4
ag4
ag4
ag4
ag4
ag4
ag4
ag4
ag4
ag4
ag4
ag4
ag4
ag4
ag4
ag4
ag4
ag4
ag4
ag4
ag4
ag4
ag4
ag4
ag4
ag4
ag4
ag4
ag4
ag4
ag4
ag4
ag4
ag4
ag4
ag4
ag4
ag4
ag4
ag4
ag4
ag4
ag4
ag4
ag4
ag4
ag4
ag4
ag4
ag4
ag4
ag4
ag4
ag4
ag4
ag4
ag4
ag4
ag4
ag4
ag4
ag4
ag4
ag4
ag4
ag4
ag4
ag4
ag4
ag4
ag4
ag4
ag4
ag4
ag4
ag4
ag4
ag4
ag4
ag4
ag4
ag4
ag4
ag4
ag4
ag4
ag4
ag4
ag4
ag4
ag4
ag4
ag4
ag4
ag4
ag4
ag4
ag4
ag4
ag4
aa(lp10
g4
ag4
ag4
ag4
ag4
ag4
ag4
ag4
ag4
ag4
ag4
ag4
ag4
ag4
ag4
ag4
ag4
ag4
ag4
ag4
ag4
ag4
ag4
ag4
ag4
ag4
ag4
ag4
ag4
ag4
ag4
ag4
ag4
ag4
ag4
ag4
ag4
ag4
ag4
ag4
ag4
ag4
ag4
ag4
ag4
ag4
ag4
ag4
ag4
ag4
ag4
ag4
ag4
ag4
ag4
ag4
ag4
ag4
ag4
ag4
ag4
ag4
ag4
ag4
ag4
ag4
ag4
ag4
ag4
ag4
ag4
ag4
ag4
ag4
ag4
ag4
ag4
ag4
ag4
ag4
ag4
ag4
ag4
ag4
ag4
ag4
ag4
ag4
ag4
ag4
ag4
ag4
ag4
ag4
ag4
ag4
ag4
ag4
ag4
ag4
ag4
ag4
ag4
ag4
ag4
ag4
ag4
ag4
ag4
ag4
ag4
ag4
ag4
ag4
ag4
ag4
ag4
ag4
ag4
ag4
ag4
ag4
ag4
ag4
ag4
ag4
ag4
ag4
aa(lp11
g4
ag4
ag4
ag4
ag4
ag4
ag4
ag4
ag4
ag4
ag4
ag4
ag4
ag4
ag4
ag4
ag4
ag4
ag4
ag4
ag4
ag4
ag4
ag4
ag4
ag4
ag4
ag4
ag4
ag4
ag4
ag4
ag4
ag4
ag4
ag4
ag4
ag4
ag4
ag4
ag4
ag4
ag4
ag4
ag4
ag4
ag4
ag4
ag4
ag4
ag4
ag4
ag4
ag4
ag4
ag4
ag4
ag4
ag4
ag4
ag4
ag4
ag4
ag4
ag4
ag4
ag4
ag4
ag4
ag4
ag4
ag4
ag4
ag4
ag4
ag4
ag4
ag4
ag4
ag4
ag4
ag4
ag4
ag4
ag4
ag4
ag4
ag4
ag4
ag4
ag4
ag4
ag4
ag4
ag4
ag4
ag4
ag4
ag4
ag4
ag4
ag4
ag4
ag4
ag4
ag4
ag4
ag4
ag4
ag4
ag4
ag4
ag4
ag4
ag4
ag4
ag4
ag4
ag4
ag4
ag4
ag4
ag4
ag4
ag4
ag4
ag4
ag4
aa(lp12
g4
ag4
ag4
ag4
ag4
ag4
ag4
ag4
ag4
ag4
ag4
ag4
ag4
ag4
ag4
ag4
ag4
ag4
ag4
ag4
ag4
ag4
ag4
ag4
ag4
ag4
ag4
ag4
ag4
ag4
ag4
ag4
ag4
ag4
ag4
ag4
ag4
ag4
ag4
ag4
ag4
ag4
ag4
ag4
ag4
ag4
ag4
ag4
ag4
ag4
ag4
ag4
ag4
ag4
ag4
ag4
ag4
ag4
ag4
ag4
ag4
ag4
ag4
ag4
ag4
ag4
ag4
ag4
ag4
ag4
ag4
ag4
ag4
ag4
ag4
ag4
ag4
ag4
ag4
ag4
ag4
ag4
ag4
ag4
ag4
ag4
ag4
ag4
ag4
ag4
ag4
ag4
ag4
ag4
ag4
ag4
ag4
ag4
ag4
ag4
ag4
ag4
ag4
ag4
ag4
ag4
ag4
ag4
ag4
ag4
ag4
ag4
ag4
ag4
ag4
ag4
ag4
ag4
ag4
ag4
ag4
ag4
ag4
ag4
ag4
ag4
ag4
ag4
aa(lp13
g4
ag4
ag4
ag4
ag4
ag4
ag4
ag4
ag4
ag4
ag4
ag4
ag4
ag4
ag4
ag4
ag4
ag4
ag4
ag4
ag4
ag4
ag4
ag4
ag4
ag4
ag4
ag4
ag4
ag4
ag4
ag4
ag4
ag4
ag4
ag4
ag4
ag4
ag4
ag4
ag4
ag4
ag4
ag4
ag4
ag4
ag4
ag4
ag4
ag4
ag4
ag4
ag4
ag4
ag4
ag4
ag4
ag4
ag4
ag4
ag4
ag4
ag4
ag4
ag4
ag4
ag4
ag4
ag4
ag4
ag4
ag4
ag4
ag4
ag4
ag4
ag4
ag4
ag4
ag4
ag4
ag4
ag4
ag4
ag4
ag4
ag4
ag4
ag4
ag4
ag4
ag4
ag4
ag4
ag4
ag4
ag4
ag4
ag4
ag4
ag4
ag4
ag4
ag4
ag4
ag4
ag4
ag4
ag4
ag4
ag4
ag4
ag4
ag4
ag4
ag4
ag4
ag4
ag4
ag4
ag4
ag4
ag4
ag4
ag4
ag4
ag4
ag4
aa(lp14
g4
ag4
ag4
ag4
ag4
ag4
ag4
ag4
ag4
ag4
ag4
ag4
ag4
ag4
ag4
ag4
ag4
ag4
ag4
ag4
ag4
ag4
ag4
ag4
ag4
ag4
ag4
ag4
ag4
ag4
ag4
ag4
ag4
ag4
ag4
ag4
ag4
ag4
ag4
ag4
ag4
ag4
ag4
ag4
ag4
ag4
ag4
ag4
ag4
ag4
ag4
ag4
ag4
ag4
ag4
ag4
ag4
ag4
ag4
ag4
ag4
ag4
ag4
ag4
ag4
ag4
ag4
ag4
ag4
ag4
ag4
ag4
ag4
ag4
ag4
ag4
ag4
ag4
ag4
ag4
ag4
ag4
ag4
ag4
ag4
ag4
ag4
ag4
ag4
ag4
ag4
ag4
ag4
ag4
ag4
ag4
ag4
ag4
ag4
ag4
ag4
ag4
ag4
ag4
ag4
ag4
ag4
ag4
ag4
ag4
ag4
ag4
ag4
ag4
ag4
ag4
ag4
ag4
ag4
ag4
ag4
ag4
ag4
ag4
ag4
ag4
ag4
ag4
aa(lp15
g4
ag4
ag4
ag4
ag4
ag4
ag4
ag4
ag4
ag4
ag4
ag4
ag4
ag4
ag4
ag4
ag4
ag4
ag4
ag4
ag4
ag4
ag4
ag4
ag4
ag4
ag4
ag4
ag4
ag4
ag4
ag4
ag4
ag4
ag4
ag4
ag4
ag4
ag4
ag4
ag4
ag4
ag4
ag4
ag4
ag4
ag4
ag4
ag4
ag4
ag4
ag4
ag4
ag4
ag4
ag4
ag4
ag4
ag4
ag4
ag4
ag4
ag4
ag4
ag4
ag4
ag4
ag4
ag4
ag4
ag4
ag4
ag4
ag4
ag4
ag4
ag4
ag4
ag4
ag4
ag4
ag4
ag4
ag4
ag4
ag4
ag4
ag4
ag4
ag4
ag4
ag4
ag4
ag4
ag4
ag4
ag4
ag4
ag4
ag4
ag4
ag4
ag4
ag4
ag4
ag4
ag4
ag4
ag4
ag4
ag4
ag4
ag4
ag4
ag4
ag4
ag4
ag4
ag4
ag4
ag4
ag4
ag4
ag4
ag4
ag4
ag4
ag4
aa(lp16
g4
ag4
ag4
ag4
ag4
ag4
ag4
ag4
ag4
ag4
ag4
ag4
ag4
ag4
ag4
ag4
ag4
ag4
ag4
ag4
ag4
ag4
ag4
ag4
ag4
ag4
ag4
ag4
ag4
ag4
ag4
ag4
ag4
ag4
ag4
ag4
ag4
ag4
ag4
ag4
ag4
ag4
ag4
ag4
ag4
ag4
ag4
ag4
ag4
ag4
ag4
ag4
ag4
ag4
ag4
ag4
ag4
ag4
ag4
ag4
ag4
ag4
ag4
ag4
ag4
ag4
ag4
ag4
ag4
ag4
ag4
ag4
ag4
ag4
ag4
ag4
ag4
ag4
ag4
ag4
ag4
ag4
ag4
ag4
ag4
ag4
ag4
ag4
ag4
ag4
ag4
ag4
ag4
ag4
ag4
ag4
ag4
ag4
ag4
ag4
ag4
ag4
ag4
ag4
ag4
ag4
ag4
ag4
ag4
ag4
ag4
ag4
ag4
ag4
ag4
ag4
ag4
ag4
ag4
ag4
ag4
ag4
ag4
ag4
ag4
ag4
ag4
ag4
aa(lp17
g4
ag4
ag4
ag4
ag4
ag4
ag4
ag4
ag4
ag4
ag4
ag4
ag4
ag4
ag4
ag4
ag4
ag4
ag4
ag4
ag4
ag4
ag4
ag4
ag4
ag4
ag4
ag4
ag4
ag4
ag4
ag4
ag4
ag4
ag4
ag4
ag4
ag4
ag4
ag4
ag4
ag4
ag4
ag4
ag4
ag4
ag4
ag4
ag4
ag4
ag4
ag4
ag4
ag4
ag4
ag4
ag4
ag4
ag4
ag4
ag4
ag4
ag4
ag4
ag4
ag4
ag4
ag4
ag4
ag4
ag4
ag4
ag4
ag4
ag4
ag4
ag4
ag4
ag4
ag4
ag4
ag4
ag4
ag4
ag4
ag4
ag4
ag4
ag4
ag4
ag4
ag4
ag4
ag4
ag4
ag4
ag4
ag4
ag4
ag4
ag4
ag4
ag4
ag4
ag4
ag4
ag4
ag4
ag4
ag4
ag4
ag4
ag4
ag4
ag4
ag4
ag4
ag4
ag4
ag4
ag4
ag4
ag4
ag4
ag4
ag4
ag4
ag4
aa(lp18
g4
ag4
ag4
ag4
ag4
ag4
ag4
ag4
ag4
ag4
ag4
ag4
ag4
ag4
ag4
ag4
ag4
ag4
ag4
ag4
ag4
ag4
ag4
ag4
ag4
ag4
ag4
ag4
ag4
ag4
ag4
ag4
ag4
ag4
ag4
ag4
ag4
ag4
ag4
ag4
ag4
ag4
ag4
ag4
ag4
ag4
ag4
ag4
ag4
ag4
ag4
ag4
ag4
ag4
ag4
ag4
ag4
ag4
ag4
ag4
ag4
ag4
ag4
ag4
ag4
ag4
ag4
ag4
ag4
ag4
ag4
ag4
ag4
ag4
ag4
ag4
ag4
ag4
ag4
ag4
ag4
ag4
ag4
ag4
ag4
ag4
ag4
ag4
ag4
ag4
ag4
ag4
ag4
ag4
ag4
ag4
ag4
ag4
ag4
ag4
ag4
ag4
ag4
ag4
ag4
ag4
ag4
ag4
ag4
ag4
ag4
ag4
ag4
ag4
ag4
ag4
ag4
ag4
ag4
ag4
ag4
ag4
ag4
ag4
ag4
ag4
ag4
ag4
aa(lp19
g4
ag4
ag4
ag4
ag4
ag4
ag4
ag4
ag4
ag4
ag4
ag4
ag4
ag4
ag4
ag4
ag4
ag4
ag4
ag4
ag4
ag4
ag4
ag4
ag4
ag4
ag4
ag4
ag4
ag4
ag4
ag4
ag4
ag4
ag4
ag4
ag4
ag4
ag4
ag4
ag4
ag4
ag4
ag4
ag4
ag4
ag4
ag4
ag4
ag4
ag4
ag4
ag4
ag4
ag4
ag4
ag4
ag4
ag4
ag4
ag4
ag4
ag4
ag4
ag4
ag4
ag4
ag4
ag4
ag4
ag4
ag4
ag4
ag4
ag4
ag4
ag4
ag4
ag4
ag4
ag4
ag4
ag4
ag4
ag4
ag4
ag4
ag4
ag4
ag4
ag4
ag4
ag4
ag4
ag4
ag4
ag4
ag4
ag4
ag4
ag4
ag4
ag4
ag4
ag4
ag4
ag4
ag4
ag4
ag4
ag4
ag4
ag4
ag4
ag4
ag4
ag4
ag4
ag4
ag4
ag4
ag4
ag4
ag4
ag4
ag4
ag4
ag4
aa(lp20
g4
ag4
ag4
ag4
ag4
ag4
ag4
ag4
ag4
ag4
ag4
ag4
ag4
ag4
ag4
ag4
ag4
ag4
ag4
ag4
ag4
ag4
ag4
ag4
ag4
ag4
ag4
ag4
ag4
ag4
ag4
ag4
ag4
ag4
ag4
ag4
ag4
ag4
ag4
ag4
ag4
ag4
ag4
ag4
ag4
ag4
ag4
ag4
ag4
ag4
ag4
ag4
ag4
ag4
ag4
ag4
ag4
ag4
ag4
ag4
ag4
ag4
ag4
ag4
ag4
ag4
ag4
ag4
ag4
ag4
ag4
ag4
ag4
ag4
ag4
ag4
ag4
ag4
ag4
ag4
ag4
ag4
ag4
ag4
ag4
ag4
ag4
ag4
ag4
ag4
ag4
ag4
ag4
ag4
ag4
ag4
ag4
ag4
ag4
ag4
ag4
ag4
ag4
ag4
ag4
ag4
ag4
ag4
ag4
ag4
ag4
ag4
ag4
ag4
ag4
ag4
ag4
ag4
ag4
ag4
ag4
ag4
ag4
ag4
ag4
ag4
ag4
ag4
aa(lp21
g4
ag4
ag4
ag4
ag4
ag4
ag4
ag4
ag4
ag4
ag4
ag4
ag4
ag4
ag4
ag4
ag4
ag4
ag4
ag4
ag4
ag4
ag4
ag4
ag4
ag4
ag4
ag4
ag4
ag4
ag4
ag4
ag4
ag4
ag4
ag4
ag4
ag4
ag4
ag4
ag4
ag4
ag4
ag4
ag4
ag4
ag4
ag4
ag5
ag4
ag4
ag4
ag4
ag4
ag4
ag4
ag4
ag4
ag4
ag4
ag4
ag4
ag4
ag4
ag4
ag4
ag4
ag4
ag4
ag4
ag4
ag4
ag4
ag4
ag4
ag4
ag4
ag4
ag4
ag4
ag4
ag4
ag4
ag4
ag4
ag4
ag4
ag4
ag4
ag4
ag4
ag4
ag4
ag4
ag4
ag4
ag4
ag4
ag4
ag4
ag4
ag4
ag4
ag4
ag4
ag4
ag4
ag4
ag4
ag4
ag4
ag4
ag4
ag4
ag4
ag4
ag4
ag4
ag4
ag4
ag4
ag4
ag4
ag4
ag4
ag4
ag4
ag4
aa(lp22
g4
ag4
ag4
ag4
ag4
ag4
ag4
ag4
ag4
ag4
ag4
ag4
ag4
ag4
ag4
ag4
ag4
ag4
ag4
ag4
ag4
ag4
ag4
ag4
ag4
ag4
ag4
ag4
ag4
ag4
ag4
ag4
ag4
ag4
ag4
ag4
ag4
ag4
ag4
ag4
ag4
ag4
ag4
ag4
ag4
ag4
ag4
ag4
ag4
ag4
ag4
ag4
ag4
ag4
ag4
ag4
ag4
ag4
ag4
ag4
ag4
ag4
ag4
ag4
ag4
ag4
ag4
ag4
ag4
ag4
ag4
ag4
ag4
ag4
ag4
ag4
ag4
ag4
ag4
ag4
ag4
ag4
ag4
ag4
ag4
ag4
ag4
ag4
ag4
ag4
ag4
ag4
ag4
ag4
ag4
ag4
ag4
ag4
ag4
ag4
ag4
ag4
ag4
ag4
ag4
ag4
ag4
ag4
ag4
ag4
ag4
ag4
ag4
ag4
ag4
ag4
ag4
ag4
ag4
ag4
ag4
ag4
ag4
ag4
ag4
ag4
ag4
ag4
aa(lp23
g4
ag4
ag4
ag4
ag4
ag4
ag4
ag4
ag4
ag4
ag4
ag4
ag4
ag4
ag4
ag4
ag4
ag4
ag4
ag4
ag4
ag4
ag4
ag4
ag4
ag4
ag4
ag4
ag4
ag4
ag4
ag4
ag4
ag4
ag4
ag4
ag4
ag4
ag4
ag4
ag4
ag4
ag4
ag4
ag4
ag4
ag4
ag4
ag4
ag4
ag4
ag4
ag4
ag4
ag4
ag4
ag4
ag4
ag4
ag4
ag4
ag4
ag4
ag4
ag4
ag4
ag4
ag4
ag4
ag4
ag4
ag4
ag4
ag4
ag4
ag4
ag4
ag4
ag4
ag4
ag4
ag4
ag4
ag4
ag4
ag4
ag4
ag4
ag4
ag4
ag4
ag4
ag4
ag4
ag4
ag4
ag4
ag4
ag4
ag4
ag4
ag4
ag4
ag4
ag4
ag4
ag4
ag4
ag4
ag4
ag4
ag4
ag4
ag4
ag4
ag4
ag4
ag4
ag4
ag4
ag4
ag4
ag4
ag4
ag4
ag4
ag4
ag4
aa(lp24
g4
ag4
ag4
ag4
ag4
ag4
ag4
ag4
ag4
ag4
ag4
ag4
ag4
ag4
ag4
ag4
ag4
ag4
ag4
ag4
ag4
ag4
ag4
ag4
ag4
ag4
ag4
ag4
ag4
ag4
ag4
ag4
ag4
ag4
ag4
ag4
ag4
ag4
ag4
ag4
ag4
ag4
ag4
ag4
ag4
ag4
ag4
ag4
ag4
ag4
ag4
ag4
ag4
ag4
ag4
ag4
ag4
ag4
ag4
ag4
ag4
ag4
ag4
ag4
ag4
ag4
ag4
ag4
ag4
ag4
ag4
ag4
ag4
ag4
ag4
ag4
ag4
ag4
ag4
ag4
ag4
ag4
ag4
ag4
ag4
ag4
ag4
ag4
ag4
ag4
ag4
ag4
ag4
ag4
ag4
ag4
ag4
ag4
ag4
ag4
ag4
ag4
ag4
ag4
ag4
ag4
ag4
ag4
ag4
ag4
ag4
ag4
ag4
ag4
ag4
ag4
ag4
ag4
ag4
ag4
ag4
ag4
ag4
ag4
ag4
ag4
ag4
ag4
aa(lp25
g4
ag4
ag4
ag4
ag4
ag4
ag4
ag4
ag4
ag4
ag4
ag4
ag4
ag4
ag4
ag4
ag4
ag4
ag4
ag4
ag4
ag4
ag4
ag4
ag4
ag4
ag4
ag4
ag4
ag4
ag4
ag4
ag4
ag4
ag4
ag4
ag4
ag4
ag4
ag4
ag4
ag4
ag4
ag4
ag4
ag4
ag4
ag4
ag4
ag4
ag4
ag4
ag4
ag4
ag4
ag4
ag5
ag4
ag4
ag4
ag4
ag4
ag4
ag4
ag4
ag4
ag4
ag4
ag4
ag4
ag4
ag4
ag4
ag4
ag4
ag4
ag4
ag4
ag4
ag4
ag4
ag4
ag4
ag4
ag4
ag4
ag4
ag4
ag4
ag4
ag4
ag4
ag4
ag4
ag4
ag4
ag4
ag4
ag4
ag4
ag4
ag4
ag4
ag4
ag4
ag4
ag4
ag4
ag4
ag4
ag4
ag4
ag4
ag4
ag4
ag4
ag4
ag4
ag4
ag4
ag4
ag4
ag4
ag4
ag4
ag4
ag4
ag4
aa(lp26
g4
ag4
ag4
ag4
ag4
ag4
ag4
ag4
ag4
ag4
ag4
ag4
ag4
ag4
ag4
ag4
ag4
ag4
ag4
ag4
ag4
ag4
ag4
ag4
ag4
ag4
ag4
ag4
ag4
ag4
ag4
ag4
ag4
ag4
ag4
ag4
ag4
ag4
ag4
ag4
ag4
ag4
ag4
ag4
ag4
ag4
ag4
ag4
ag4
ag4
ag4
ag4
ag4
ag4
ag4
ag4
ag4
ag4
ag4
ag4
ag4
ag4
ag4
ag4
ag4
ag4
ag4
ag4
ag4
ag4
ag4
ag5
ag4
ag4
ag4
ag4
ag4
ag4
ag4
ag4
ag4
ag4
ag4
ag4
ag4
ag4
ag4
ag4
ag4
ag4
ag4
ag4
ag4
ag4
ag4
ag4
ag4
ag4
ag4
ag4
ag4
ag4
ag4
ag4
ag4
ag4
ag4
ag4
ag4
ag4
ag4
ag4
ag4
ag4
ag4
ag4
ag4
ag4
ag4
ag4
ag4
ag4
ag4
ag4
ag4
ag4
ag4
ag4
aa(lp27
g4
ag4
ag4
ag4
ag4
ag4
ag4
ag4
ag4
ag4
ag4
ag4
ag4
ag4
ag4
ag4
ag4
ag4
ag4
ag4
ag4
ag4
ag4
ag4
ag4
ag4
ag4
ag4
ag4
ag4
ag4
ag4
ag4
ag4
ag4
ag4
ag4
ag4
ag4
ag4
ag4
ag4
ag4
ag4
ag4
ag4
ag4
ag4
ag4
ag4
ag4
ag4
ag4
ag4
ag4
ag4
ag4
ag4
ag4
ag4
ag4
ag4
ag4
ag4
ag4
ag4
ag5
ag5
ag5
ag5
ag5
ag5
ag5
ag4
ag4
ag4
ag4
ag4
ag4
ag4
ag4
ag4
ag4
ag4
ag4
ag4
ag4
ag4
ag4
ag4
ag4
ag4
ag4
ag4
ag4
ag4
ag4
ag4
ag4
ag4
ag4
ag4
ag4
ag4
ag4
ag4
ag4
ag4
ag4
ag4
ag4
ag4
ag4
ag4
ag4
ag4
ag4
ag4
ag4
ag4
ag4
ag4
ag4
ag4
ag4
ag4
ag4
ag4
aa(lp28
g4
ag4
ag4
ag4
ag4
ag4
ag4
ag4
ag4
ag4
ag4
ag4
ag4
ag4
ag4
ag4
ag4
ag4
ag4
ag4
ag4
ag4
ag4
ag4
ag4
ag4
ag4
ag4
ag4
ag4
ag4
ag4
ag4
ag4
ag4
ag4
ag4
ag4
ag4
ag4
ag4
ag4
ag4
ag4
ag4
ag4
ag4
ag4
ag4
ag4
ag4
ag4
ag4
ag4
ag4
ag4
ag4
ag4
ag4
ag4
ag4
ag4
ag4
ag4
ag5
ag5
ag5
ag5
ag5
ag5
ag5
ag5
ag5
ag5
ag5
ag4
ag4
ag4
ag4
ag4
ag4
ag4
ag4
ag4
ag4
ag4
ag4
ag4
ag4
ag4
ag4
ag4
ag4
ag4
ag4
ag4
ag4
ag4
ag4
ag4
ag4
ag4
ag4
ag4
ag4
ag4
ag4
ag4
ag4
ag4
ag4
ag4
ag4
ag4
ag4
ag4
ag4
ag4
ag4
ag4
ag4
ag4
ag4
ag4
ag4
ag4
ag4
ag4
aa(lp29
g4
ag4
ag4
ag4
ag4
ag4
ag4
ag4
ag4
ag4
ag4
ag4
ag4
ag4
ag4
ag4
ag4
ag4
ag4
ag4
ag4
ag4
ag4
ag4
ag4
ag4
ag4
ag4
ag4
ag4
ag4
ag4
ag4
ag4
ag4
ag4
ag4
ag4
ag4
ag4
ag4
ag4
ag4
ag4
ag4
ag4
ag4
ag4
ag4
ag4
ag4
ag4
ag4
ag4
ag4
ag4
ag4
ag4
ag4
ag4
ag4
ag4
ag5
ag5
ag5
ag5
ag5
ag5
ag5
ag5
ag5
ag5
ag5
ag5
ag5
ag5
ag5
ag4
ag4
ag4
ag4
ag4
ag4
ag4
ag4
ag4
ag4
ag4
ag4
ag4
ag4
ag4
ag4
ag4
ag4
ag4
ag4
ag4
ag4
ag4
ag4
ag4
ag4
ag4
ag4
ag4
ag4
ag4
ag4
ag4
ag4
ag4
ag4
ag4
ag4
ag4
ag4
ag4
ag4
ag4
ag4
ag4
ag4
ag4
ag4
ag4
ag4
ag4
aa(lp30
g4
ag4
ag4
ag4
ag4
ag4
ag4
ag4
ag4
ag4
ag4
ag4
ag4
ag4
ag4
ag4
ag4
ag4
ag4
ag4
ag4
ag4
ag4
ag4
ag4
ag4
ag4
ag4
ag4
ag4
ag4
ag4
ag4
ag4
ag4
ag4
ag4
ag4
ag4
ag4
ag4
ag4
ag4
ag4
ag4
ag4
ag4
ag4
ag4
ag4
ag4
ag4
ag4
ag4
ag4
ag4
ag4
ag4
ag4
ag4
ag4
ag5
ag5
ag5
ag5
ag5
ag5
ag5
ag5
ag5
ag5
ag5
ag5
ag5
ag5
ag5
ag5
ag4
ag4
ag4
ag4
ag4
ag4
ag4
ag4
ag4
ag4
ag4
ag4
ag4
ag4
ag4
ag4
ag4
ag4
ag4
ag4
ag4
ag4
ag4
ag4
ag4
ag4
ag4
ag4
ag4
ag4
ag4
ag4
ag4
ag4
ag4
ag4
ag4
ag4
ag4
ag4
ag4
ag4
ag4
ag4
ag4
ag4
ag4
ag4
ag4
ag4
ag4
aa(lp31
g4
ag4
ag4
ag4
ag4
ag4
ag4
ag4
ag4
ag4
ag4
ag4
ag4
ag4
ag4
ag4
ag4
ag4
ag4
ag4
ag4
ag4
ag4
ag4
ag4
ag4
ag4
ag4
ag4
ag4
ag4
ag4
ag4
ag4
ag4
ag4
ag4
ag4
ag4
ag4
ag4
ag4
ag4
ag4
ag4
ag4
ag4
ag4
ag4
ag4
ag4
ag4
ag4
ag4
ag4
ag4
ag4
ag4
ag4
ag4
ag4
ag5
ag5
ag5
ag5
ag5
aS'grass'
p32
ag32
ag32
ag5
ag32
ag5
ag5
ag32
ag5
ag5
ag5
ag5
ag4
ag4
ag4
ag4
ag4
ag4
ag4
ag4
ag4
ag4
ag4
ag4
ag4
ag4
ag4
ag4
ag4
ag4
ag4
ag4
ag4
ag4
ag4
ag4
ag4
ag4
ag4
ag4
ag4
ag4
ag4
ag4
ag4
ag4
ag4
ag4
ag4
ag4
ag4
ag4
ag4
ag4
ag4
ag4
ag4
ag4
ag4
ag4
ag4
ag4
aa(lp33
g4
ag4
ag4
ag4
ag4
ag4
ag4
ag4
ag4
ag4
ag4
ag4
ag4
ag4
ag4
ag4
ag4
ag4
ag4
ag4
ag4
ag4
ag4
ag4
ag4
ag4
ag4
ag4
ag4
ag4
ag4
ag4
ag4
ag4
ag4
ag4
ag4
ag4
ag4
ag4
ag4
ag4
ag4
ag4
ag4
ag4
ag4
ag4
ag4
ag4
ag4
ag4
ag4
ag4
ag4
ag4
ag4
ag4
ag4
ag5
ag5
ag5
ag5
ag5
ag5
ag5
ag32
ag32
ag32
ag32
ag32
ag32
ag32
ag32
ag5
ag5
ag5
ag5
ag5
ag5
ag5
ag4
ag4
ag4
ag4
ag4
ag4
ag4
ag4
ag4
ag4
ag4
ag4
ag4
ag4
ag4
ag4
ag4
ag4
ag4
ag4
ag4
ag4
ag4
ag4
ag4
ag4
ag4
ag4
ag4
ag4
ag4
ag4
ag4
ag4
ag4
ag4
ag4
ag4
ag4
ag4
ag4
ag4
ag4
ag4
ag4
ag4
ag4
aa(lp34
g4
ag4
ag4
ag4
ag4
ag4
ag4
ag4
ag4
ag4
ag4
ag4
ag4
ag4
ag4
ag4
ag4
ag4
ag4
ag4
ag4
ag4
ag4
ag4
ag4
ag4
ag4
ag4
ag4
ag4
ag4
ag4
ag4
ag4
ag4
ag4
ag4
ag4
ag4
ag4
ag4
ag4
ag4
ag4
ag4
ag4
ag4
ag4
ag4
ag4
ag4
ag4
ag4
ag4
ag4
ag4
ag4
ag4
ag5
ag5
ag5
ag5
ag5
ag5
ag5
ag32
ag32
ag32
ag32
ag32
ag32
ag32
ag32
ag32
ag32
ag5
ag5
ag5
ag5
ag5
ag5
ag5
ag4
ag4
ag4
ag4
ag4
ag4
ag4
ag4
ag4
ag4
ag4
ag4
ag4
ag4
ag4
ag4
ag4
ag4
ag4
ag4
ag4
ag4
ag4
ag4
ag4
ag4
ag4
ag4
ag4
ag4
ag4
ag4
ag4
ag4
ag4
ag4
ag4
ag4
ag4
ag4
ag4
ag4
ag4
ag4
ag4
ag4
aa(lp35
g4
ag4
ag4
ag4
ag4
ag4
ag4
ag4
ag4
ag4
ag4
ag4
ag4
ag4
ag4
ag4
ag4
ag4
ag4
ag4
ag4
ag4
ag4
ag4
ag4
ag4
ag4
ag4
ag4
ag4
ag4
ag4
ag4
ag4
ag4
ag4
ag4
ag4
ag4
ag4
ag4
ag4
ag4
ag4
ag4
ag4
ag4
ag4
ag4
ag4
ag4
ag4
ag4
ag4
ag4
ag5
ag4
ag5
ag5
ag5
ag5
ag5
ag5
ag5
ag5
ag5
ag32
ag32
ag32
ag32
ag32
ag32
ag32
ag32
ag5
ag5
ag5
ag5
ag5
ag5
ag5
ag5
ag4
ag4
ag4
ag4
ag4
ag4
ag4
ag4
ag4
ag4
ag4
ag4
ag4
ag4
ag4
ag4
ag4
ag4
ag4
ag4
ag4
ag4
ag4
ag4
ag4
ag4
ag4
ag4
ag4
ag4
ag4
ag4
ag4
ag4
ag4
ag4
ag4
ag4
ag4
ag4
ag4
ag4
ag4
ag4
ag4
ag4
aa(lp36
g4
ag4
ag4
ag4
ag4
ag4
ag4
ag4
ag4
ag4
ag4
ag4
ag4
ag4
ag4
ag4
ag4
ag4
ag4
ag4
ag4
ag4
ag4
ag4
ag4
ag4
ag4
ag4
ag4
ag4
ag4
ag4
ag4
ag4
ag4
ag4
ag4
ag4
ag4
ag4
ag4
ag4
ag4
ag4
ag4
ag4
ag4
ag4
ag5
ag4
ag4
ag4
ag4
ag5
ag5
ag5
ag5
ag5
ag5
ag5
ag5
ag5
ag5
ag5
ag5
ag32
ag32
ag32
ag32
ag32
ag32
ag32
ag32
ag32
ag32
ag5
ag5
ag5
ag5
ag5
ag5
ag5
ag5
ag4
ag4
ag4
ag4
ag4
ag4
ag4
ag4
ag4
ag4
ag4
ag4
ag4
ag4
ag4
ag4
ag4
ag4
ag4
ag4
ag4
ag4
ag4
ag4
ag4
ag4
ag4
ag4
ag4
ag4
ag4
ag4
ag4
ag4
ag4
ag4
ag4
ag4
ag4
ag4
ag4
ag4
ag4
ag4
ag4
aa(lp37
g4
ag4
ag4
ag4
ag4
ag4
ag4
ag4
ag4
ag4
ag4
ag4
ag4
ag4
ag5
ag5
ag5
ag5
ag5
ag4
ag4
ag4
ag4
ag4
ag4
ag4
ag4
ag4
ag4
ag4
ag4
ag4
ag4
ag4
ag4
ag4
ag4
ag4
ag4
ag4
ag4
ag4
ag4
ag4
ag4
ag4
ag4
ag5
ag5
ag5
ag5
ag5
ag5
ag5
ag5
ag5
ag5
ag5
ag5
ag5
ag5
ag5
ag32
ag32
ag32
ag32
ag32
ag32
ag32
ag32
ag32
ag32
ag32
ag32
ag32
ag32
ag5
ag5
ag5
ag32
ag32
ag5
ag5
ag5
ag4
ag4
ag4
ag4
ag4
ag4
ag4
ag4
ag4
ag4
ag4
ag4
ag4
ag4
ag4
ag4
ag4
ag4
ag4
ag4
ag4
ag4
ag4
ag4
ag4
ag4
ag4
ag4
ag4
ag4
ag4
ag4
ag4
ag4
ag4
ag4
ag4
ag4
ag4
ag4
ag4
ag4
ag4
ag4
aa(lp38
g5
ag5
ag4
ag4
ag4
ag4
ag4
ag4
ag4
ag4
ag5
ag5
ag5
ag5
ag5
ag5
ag5
ag5
ag5
ag5
ag4
ag4
ag4
ag4
ag4
ag4
ag4
ag4
ag4
ag4
ag4
ag4
ag4
ag4
ag4
ag4
ag4
ag4
ag4
ag4
ag4
ag4
ag4
ag4
ag4
ag4
ag4
ag5
ag5
ag5
ag5
ag5
ag5
ag5
ag5
ag5
ag32
ag32
ag32
ag32
ag5
ag32
ag32
ag32
ag32
ag32
ag32
ag32
ag32
ag32
ag32
ag32
ag32
ag32
ag32
ag32
ag5
ag32
ag5
ag32
ag32
ag32
ag5
ag5
ag4
ag4
ag4
ag4
ag4
ag4
ag4
ag4
ag4
ag4
ag4
ag4
ag4
ag4
ag4
ag4
ag4
ag4
ag4
ag4
ag4
ag4
ag4
ag4
ag4
ag4
ag4
ag4
ag4
ag4
ag4
ag4
ag4
ag4
ag4
ag4
ag4
ag4
ag4
ag4
ag4
ag4
ag4
ag4
aa(lp39
g5
ag5
ag4
ag5
ag5
ag5
ag5
ag5
ag5
ag5
ag5
ag5
ag5
ag5
ag5
ag5
ag5
ag5
ag5
ag5
ag5
ag4
ag4
ag4
ag4
ag4
ag4
ag4
ag4
ag4
ag4
ag4
ag4
ag4
ag4
ag4
ag4
ag4
ag4
ag4
ag4
ag4
ag4
ag4
ag4
ag5
ag4
ag5
ag5
ag5
ag5
ag5
ag5
ag5
ag5
ag5
ag5
ag32
ag32
ag32
ag32
ag32
ag32
ag32
ag32
ag32
ag32
ag32
ag32
ag32
ag32
ag32
ag32
ag32
ag32
ag32
ag32
ag32
ag32
ag32
ag32
ag5
ag5
ag5
ag5
ag4
ag4
ag4
ag4
ag4
ag4
ag4
ag4
ag4
ag4
ag4
ag4
ag4
ag4
ag4
ag4
ag4
ag4
ag4
ag4
ag4
ag4
ag4
ag4
ag4
ag4
ag4
ag4
ag4
ag4
ag4
ag4
ag4
ag4
ag4
ag4
ag4
ag4
ag4
ag4
ag4
ag4
ag4
aa(lp40
g5
ag5
ag5
ag5
ag5
ag5
ag5
ag5
ag5
ag5
ag5
ag5
ag5
ag5
ag5
ag5
ag5
ag5
ag5
ag5
ag5
ag5
ag4
ag4
ag4
ag4
ag4
ag4
ag4
ag4
ag4
ag4
ag4
ag4
ag4
ag4
ag4
ag4
ag4
ag4
ag4
ag5
ag5
ag5
ag5
ag5
ag5
ag5
ag5
ag5
ag5
ag5
ag5
ag5
ag5
ag5
ag32
ag32
ag32
ag32
ag32
ag32
ag32
ag32
ag32
ag32
ag32
ag32
ag32
ag32
ag32
ag32
ag32
ag32
ag32
ag32
ag32
ag32
ag32
ag32
ag5
ag5
ag5
ag5
ag4
ag4
ag4
ag4
ag4
ag4
ag4
ag4
ag4
ag4
ag4
ag4
ag4
ag4
ag4
ag4
ag4
ag4
ag4
ag4
ag4
ag4
ag4
ag4
ag4
ag4
ag4
ag4
ag4
ag4
ag4
ag4
ag4
ag4
ag4
ag4
ag4
ag4
ag4
ag4
ag4
ag4
ag4
ag4
aa(lp41
g5
ag5
ag5
ag5
ag5
ag5
ag5
ag5
ag5
ag5
ag5
ag5
ag5
ag5
ag5
ag5
ag5
ag5
ag5
ag5
ag5
ag5
ag5
ag5
ag4
ag4
ag4
ag4
ag4
ag4
ag4
ag4
ag4
ag4
ag4
ag4
ag5
ag4
ag4
ag4
ag4
ag5
ag5
ag5
ag5
ag5
ag5
ag5
ag5
ag5
ag5
ag5
ag5
ag5
ag5
ag5
ag5
ag32
ag32
ag32
ag32
ag32
ag32
ag32
ag32
ag32
ag32
ag32
ag32
ag32
ag32
ag32
ag32
ag32
ag32
ag32
ag32
ag32
ag32
ag32
ag32
ag5
ag5
ag5
ag4
ag4
ag4
ag4
ag4
ag4
ag4
ag4
ag4
ag4
ag4
ag4
ag4
ag4
ag4
ag4
ag4
ag4
ag4
ag4
ag4
ag4
ag4
ag4
ag4
ag4
ag4
ag4
ag4
ag4
ag4
ag4
ag4
ag4
ag4
ag4
ag4
ag4
ag4
ag4
ag4
ag4
ag4
ag4
aa(lp42
g5
ag5
ag5
ag5
ag5
ag32
ag5
ag5
ag5
ag5
ag5
ag5
ag5
ag5
ag5
ag5
ag5
ag5
ag5
ag5
ag5
ag5
ag5
ag5
ag5
ag5
ag4
ag5
ag5
ag5
ag4
ag4
ag4
ag5
ag5
ag5
ag5
ag5
ag5
ag5
ag5
ag5
ag5
ag5
ag5
ag5
ag5
ag5
ag5
ag5
ag5
ag5
ag5
ag5
ag5
ag5
ag5
ag5
ag32
ag32
ag32
ag32
ag32
ag32
ag32
ag32
ag32
ag32
ag32
ag32
ag32
ag32
ag32
ag32
ag32
ag32
ag32
ag32
ag32
ag32
ag32
ag5
ag5
ag5
ag5
ag4
ag4
ag4
ag4
ag4
ag4
ag4
ag4
ag4
ag4
ag4
ag4
ag4
ag4
ag4
ag4
ag4
ag4
ag4
ag4
ag4
ag4
ag4
ag4
ag4
ag4
ag4
ag4
ag4
ag4
ag4
ag4
ag4
ag4
ag4
ag4
ag4
ag4
ag4
ag4
ag4
ag4
ag4
aa(lp43
g5
ag5
ag32
ag5
ag5
ag32
ag5
ag32
ag5
ag32
ag32
ag32
ag5
ag5
ag5
ag5
ag5
ag5
ag5
ag5
ag5
ag5
ag5
ag5
ag5
ag5
ag5
ag5
ag5
ag5
ag5
ag5
ag5
ag5
ag5
ag5
ag5
ag5
ag5
ag5
ag5
ag5
ag5
ag5
ag5
ag5
ag5
ag5
ag5
ag5
ag5
ag5
ag5
ag5
ag32
ag5
ag32
ag32
ag32
ag32
ag32
ag32
ag32
ag32
ag32
ag32
ag32
ag32
ag32
ag32
ag32
ag32
ag32
ag32
ag32
ag32
ag32
ag32
ag32
ag32
ag32
ag32
ag5
ag5
ag5
ag4
ag4
ag4
ag4
ag4
ag4
ag4
ag4
ag4
ag4
ag4
ag4
ag4
ag4
ag4
ag4
ag4
ag4
ag4
ag4
ag4
ag4
ag4
ag4
ag4
ag4
ag4
ag4
ag4
ag4
ag4
ag4
ag4
ag4
ag4
ag4
ag4
ag4
ag4
ag4
ag4
ag4
ag4
aa(lp44
g5
ag32
ag32
ag32
ag32
ag32
ag32
ag32
ag32
ag32
ag32
ag32
ag32
ag5
ag5
ag5
ag5
ag5
ag5
ag5
ag5
ag5
ag5
ag5
ag5
ag5
ag5
ag5
ag32
ag5
ag32
ag5
ag5
ag5
ag32
ag5
ag5
ag5
ag5
ag5
ag5
ag5
ag32
ag32
ag32
ag32
ag32
ag5
ag5
ag5
ag5
ag5
ag5
ag5
ag32
ag32
ag32
ag32
ag32
ag32
ag32
ag32
ag32
ag32
ag32
ag32
ag32
ag32
ag32
ag32
ag32
ag32
ag32
ag32
ag32
ag32
ag32
ag32
ag32
ag32
ag32
ag5
ag5
ag5
ag5
ag4
ag4
ag4
ag4
ag4
ag4
ag4
ag4
ag4
ag4
ag4
ag4
ag4
ag4
ag4
ag4
ag4
ag4
ag4
ag4
ag4
ag4
ag4
ag4
ag4
ag4
ag4
ag4
ag4
ag4
ag4
ag4
ag4
ag4
ag4
ag4
ag4
ag4
ag4
ag4
ag4
ag4
ag4
aa(lp45
g32
ag32
ag32
ag5
ag32
ag32
ag32
ag32
ag32
ag32
ag32
ag32
ag32
ag32
ag32
ag5
ag5
ag5
ag5
ag5
ag5
ag5
ag5
ag5
ag5
ag5
ag5
ag32
ag32
ag32
ag32
ag32
ag32
ag32
ag32
ag32
ag32
ag5
ag32
ag32
ag32
ag32
ag32
ag32
ag32
ag32
ag5
ag5
ag5
ag5
ag5
ag5
ag5
ag5
ag32
ag32
ag32
ag32
ag32
ag32
ag32
ag32
ag32
ag32
ag32
ag32
ag32
ag32
ag32
ag32
ag32
ag32
ag32
ag32
ag32
ag32
ag32
ag32
ag32
ag32
ag32
ag32
ag32
ag5
ag5
ag5
ag5
ag5
ag4
ag4
ag4
ag4
ag4
ag4
ag4
ag4
ag4
ag4
ag4
ag4
ag4
ag4
ag4
ag4
ag4
ag4
ag4
ag4
ag4
ag4
ag4
ag4
ag4
ag4
ag4
ag4
ag4
ag4
ag4
ag4
ag4
ag4
ag4
ag4
ag4
ag4
ag4
ag4
aa(lp46
g32
ag32
ag32
ag32
ag5
ag32
ag32
ag32
ag32
ag32
ag32
ag32
ag32
ag32
ag5
ag5
ag5
ag5
ag5
ag5
ag5
ag5
ag5
ag5
ag5
ag5
ag5
ag32
ag32
ag32
ag32
ag32
ag32
ag32
ag32
ag32
ag32
ag32
ag32
ag32
ag32
ag32
ag32
ag32
ag32
ag32
ag5
ag5
ag5
ag5
ag5
ag5
ag5
ag32
ag32
ag32
ag32
ag32
ag32
ag32
ag32
ag32
ag32
ag32
ag32
ag32
ag32
ag32
ag32
ag32
ag32
ag32
ag32
ag32
ag32
ag32
ag32
ag32
ag32
ag32
ag32
ag32
ag32
ag32
ag5
ag5
ag5
ag5
ag5
ag4
ag4
ag4
ag4
ag4
ag4
ag4
ag4
ag4
ag4
ag4
ag4
ag4
ag4
ag4
ag4
ag4
ag4
ag4
ag4
ag4
ag4
ag4
ag4
ag4
ag4
ag4
ag4
ag4
ag4
ag4
ag4
ag4
ag4
ag4
ag4
ag4
ag4
ag4
aa(lp47
g32
ag32
ag32
ag32
ag32
ag32
ag32
ag32
ag32
ag32
ag32
ag32
ag32
ag32
ag32
ag5
ag5
ag5
ag5
ag5
ag5
ag5
ag5
ag5
ag5
ag5
ag5
ag32
ag32
ag32
ag32
ag32
ag32
ag32
ag32
ag32
ag32
ag32
ag32
ag32
ag32
ag32
ag32
ag32
ag32
ag32
ag5
ag5
ag5
ag5
ag5
ag32
ag32
ag32
ag32
ag32
ag32
ag32
ag32
ag32
ag32
ag32
ag32
ag32
ag32
ag32
ag32
ag32
ag32
ag32
ag32
ag32
ag32
ag32
ag32
ag32
ag32
ag32
ag32
ag32
ag32
ag32
ag32
ag32
ag32
ag32
ag5
ag5
ag5
ag5
ag4
ag4
ag4
ag4
ag4
ag4
ag4
ag4
ag4
ag4
ag4
ag4
ag4
ag4
ag4
ag4
ag4
ag4
ag4
ag4
ag4
ag4
ag4
ag4
ag4
ag4
ag4
ag4
ag4
ag4
ag4
ag4
ag4
ag4
ag4
ag4
ag4
ag4
aa(lp48
g32
ag32
ag32
ag32
ag32
ag32
ag32
ag32
ag32
ag32
ag32
ag32
ag32
ag32
ag32
ag32
ag32
ag32
ag32
ag5
ag5
ag5
ag5
ag5
ag32
ag32
ag32
ag32
ag32
ag32
ag32
ag32
ag32
ag32
ag32
ag32
ag32
ag32
ag32
ag32
ag32
ag32
ag32
ag32
ag32
ag32
ag32
ag32
ag32
ag32
ag32
ag32
ag32
ag32
ag32
ag32
ag32
ag32
ag32
ag32
ag32
ag32
ag32
ag32
ag32
ag32
ag32
ag32
ag32
ag32
ag32
ag32
ag32
ag32
ag32
ag32
ag32
ag32
ag32
ag32
ag32
ag32
ag32
ag32
ag32
ag32
ag32
ag32
ag5
ag5
ag5
ag5
ag4
ag4
ag4
ag4
ag4
ag4
ag4
ag4
ag4
ag4
ag4
ag4
ag4
ag4
ag4
ag4
ag4
ag4
ag4
ag4
ag4
ag4
ag4
ag4
ag4
ag4
ag4
ag4
ag4
ag4
ag4
ag4
ag4
ag4
ag4
ag4
aa(lp49
g32
ag32
ag32
ag32
ag32
ag32
ag32
ag32
ag32
ag32
ag32
ag32
ag32
ag32
ag32
ag32
ag32
ag32
ag32
ag32
ag32
ag32
ag32
ag32
ag32
ag32
ag32
ag32
ag32
ag32
ag32
ag32
ag32
ag32
ag32
ag32
ag32
ag32
ag32
ag32
ag32
ag32
ag32
ag32
ag32
ag32
ag32
ag32
ag32
ag32
ag32
ag32
ag32
ag32
ag32
ag32
ag32
ag32
ag32
ag32
ag32
ag32
ag32
ag32
ag32
ag32
ag32
ag32
ag32
ag32
ag32
ag32
ag32
ag32
ag32
ag32
ag32
ag32
ag32
ag32
ag32
ag32
ag32
ag32
ag32
ag32
ag32
ag32
ag32
ag5
ag5
ag5
ag5
ag4
ag4
ag4
ag4
ag4
ag4
ag4
ag4
ag4
ag4
ag4
ag4
ag4
ag4
ag4
ag4
ag4
ag4
ag4
ag4
ag4
ag4
ag4
ag4
ag4
ag4
ag4
ag4
ag4
ag4
ag4
ag4
ag4
ag4
ag4
aa(lp50
g32
ag32
ag32
ag32
ag32
ag32
ag32
ag32
ag32
ag32
ag32
ag32
ag32
ag32
ag32
ag32
ag32
ag32
ag32
ag32
ag32
ag32
ag32
ag32
ag32
ag32
ag32
ag32
ag32
ag32
ag32
ag32
ag32
ag32
ag32
ag32
ag32
ag32
ag32
ag32
ag32
ag32
ag32
ag32
ag32
ag32
ag32
ag32
ag32
ag32
ag32
ag32
ag32
ag32
ag32
ag32
ag32
ag32
ag32
ag32
ag32
ag32
ag32
ag32
ag32
ag32
ag32
ag32
ag32
ag32
ag32
ag32
ag32
ag32
ag32
ag32
ag32
ag32
ag32
ag32
ag32
ag32
ag32
ag32
ag32
ag32
ag32
ag32
ag32
ag32
ag32
ag5
ag5
ag5
ag4
ag4
ag4
ag4
ag4
ag4
ag4
ag4
ag4
ag4
ag4
ag4
ag4
ag4
ag4
ag4
ag4
ag4
ag4
ag4
ag4
ag4
ag4
ag4
ag4
ag4
ag4
ag4
ag4
ag4
ag4
ag4
ag4
ag4
aa(lp51
g32
ag32
ag32
ag32
ag32
ag32
ag32
ag32
ag32
ag32
ag32
ag32
ag32
ag32
ag32
ag32
ag32
ag32
ag32
ag32
ag32
ag32
ag32
ag32
ag32
ag32
ag32
ag32
ag32
ag32
ag32
ag32
ag32
ag32
ag32
ag32
ag32
ag32
ag32
ag32
ag32
ag32
ag32
ag32
ag32
ag32
ag32
ag32
ag32
ag32
ag32
ag32
ag32
ag32
ag32
ag32
ag32
ag32
ag32
ag32
ag32
ag32
ag32
ag32
ag32
ag32
ag32
ag32
ag32
ag32
ag32
ag32
ag32
ag32
ag32
ag32
ag32
ag32
ag32
ag32
ag32
ag32
ag32
ag32
ag32
ag32
ag32
ag32
ag32
ag32
ag32
ag5
ag5
ag5
ag5
ag5
ag5
ag4
ag4
ag4
ag4
ag4
ag4
ag4
ag4
ag4
ag4
ag4
ag4
ag4
ag4
ag4
ag4
ag4
ag4
ag4
ag4
ag4
ag4
ag4
ag4
ag4
ag4
ag4
ag4
ag4
ag4
ag4
aa(lp52
g32
ag32
ag32
ag32
ag32
ag32
ag32
ag32
ag32
ag32
ag32
ag32
ag32
ag32
ag32
ag32
ag32
ag32
ag32
ag32
ag32
ag32
ag32
ag32
ag32
ag32
ag32
ag32
ag32
ag32
ag32
ag32
ag32
ag32
ag32
ag32
ag32
ag32
ag32
ag32
ag32
ag32
ag32
ag32
ag32
ag32
ag32
ag32
ag32
ag32
ag32
ag32
ag32
ag32
ag32
ag32
ag32
ag32
ag32
ag32
ag32
ag32
ag32
ag32
ag32
ag32
ag32
ag32
ag32
ag32
ag32
ag32
ag32
ag32
ag32
ag32
ag32
ag32
ag32
ag32
ag32
ag32
ag32
ag32
ag32
ag32
ag32
ag32
ag32
ag32
ag5
ag5
ag5
ag5
ag5
ag5
ag5
ag5
ag5
ag4
ag4
ag4
ag4
ag4
ag4
ag4
ag4
ag4
ag4
ag4
ag4
ag4
ag4
ag4
ag4
ag4
ag4
ag4
ag4
ag4
ag4
ag4
ag4
ag4
ag4
ag4
ag4
ag4
aa(lp53
g32
ag32
ag32
ag32
ag32
ag32
ag32
ag32
ag32
ag32
ag32
ag32
ag32
ag32
ag32
ag32
ag32
ag32
ag32
ag32
ag32
ag32
ag32
ag32
ag32
ag32
ag32
ag32
ag32
ag32
ag32
ag32
ag32
ag32
ag32
ag32
ag32
ag32
ag32
ag32
ag32
ag32
ag32
ag32
ag32
ag32
ag32
ag32
ag32
ag32
ag32
ag32
ag32
ag32
ag32
ag32
ag32
ag32
ag32
ag32
ag32
ag32
ag32
ag32
ag32
ag32
ag32
ag32
ag32
ag32
ag32
ag32
ag32
ag32
ag32
ag32
ag32
ag32
ag32
ag32
ag32
ag32
ag32
ag32
ag32
ag32
ag32
ag32
ag32
ag32
ag5
ag5
ag5
ag5
ag5
ag5
ag5
ag5
ag5
ag5
ag5
ag4
ag4
ag4
ag4
ag4
ag4
ag4
ag4
ag4
ag4
ag4
ag4
ag4
ag4
ag4
ag4
ag4
ag4
ag4
ag4
ag4
ag4
ag4
ag4
ag4
ag4
ag4
aa(lp54
g5
ag32
ag32
ag32
ag32
ag32
ag32
ag32
ag32
ag32
ag32
ag32
ag32
ag32
ag32
ag32
ag32
ag32
ag32
ag32
ag32
ag32
ag32
ag32
ag32
ag32
ag32
ag32
ag32
ag32
ag32
ag32
ag32
ag32
ag32
ag32
ag32
ag32
ag32
ag32
ag32
ag32
ag32
ag32
ag32
ag32
ag32
ag32
ag32
ag32
ag32
ag32
ag32
ag32
ag32
ag32
ag32
ag32
ag32
ag32
ag32
ag32
ag32
ag32
ag32
ag32
ag32
ag32
ag32
ag32
ag32
ag32
ag32
ag32
ag32
ag32
ag32
ag32
ag32
ag32
ag32
ag32
ag32
ag32
ag32
ag32
ag32
ag32
ag32
ag32
ag5
ag5
ag5
ag5
ag32
ag32
ag32
ag5
ag5
ag5
ag5
ag4
ag4
ag4
ag4
ag4
ag4
ag4
ag4
ag4
ag4
ag4
ag4
ag4
ag4
ag4
ag4
ag4
ag4
ag4
ag4
ag4
ag4
ag4
ag4
ag4
ag4
ag4
aa(lp55
g5
ag5
ag32
ag32
ag32
ag32
ag32
ag32
ag32
ag32
ag32
ag32
ag32
ag32
ag32
ag32
ag32
ag32
ag32
ag32
ag32
ag32
ag32
ag32
ag32
ag32
ag32
ag32
ag32
ag32
ag32
ag32
ag32
ag32
ag32
ag32
ag32
ag32
ag32
ag32
ag32
ag32
ag32
ag32
ag32
ag32
ag32
ag32
ag32
ag32
ag32
ag32
ag32
ag32
ag32
ag32
ag32
ag32
ag32
ag32
ag32
ag32
ag32
ag32
ag32
ag32
ag32
ag32
ag32
ag32
ag32
ag32
ag32
ag32
ag32
ag32
ag32
ag32
ag32
ag32
ag32
ag32
ag32
ag32
ag32
ag32
ag32
ag32
ag32
ag32
ag32
ag32
ag5
ag32
ag32
ag32
ag32
ag5
ag5
ag5
ag5
ag5
ag5
ag4
ag4
ag4
ag4
ag4
ag4
ag4
ag4
ag4
ag4
ag4
ag4
ag4
ag4
ag4
ag4
ag4
ag4
ag4
ag4
ag4
ag4
ag4
ag4
ag4
aa(lp56
g5
ag5
ag5
ag5
ag32
ag32
ag32
ag32
ag32
ag32
ag32
ag32
ag32
ag32
ag32
ag32
ag32
ag32
ag32
ag32
ag32
ag32
ag32
ag32
ag32
ag32
ag32
ag32
ag32
ag32
ag32
ag32
ag32
ag32
ag32
ag32
ag32
ag32
ag32
ag32
ag32
ag32
ag32
ag32
ag32
ag32
ag32
ag32
ag32
ag32
ag32
ag32
ag32
ag32
ag32
ag32
ag32
ag32
ag32
ag32
ag32
ag32
ag32
ag32
ag32
ag32
ag32
ag32
ag32
ag32
ag32
ag32
ag32
ag32
ag32
ag32
ag32
ag32
ag32
ag32
ag32
ag32
ag32
ag32
ag32
ag32
ag32
ag32
ag32
ag32
ag32
ag32
ag32
ag32
ag32
ag32
ag32
ag5
ag5
ag5
ag5
ag5
ag5
ag5
ag4
ag4
ag4
ag4
ag4
ag4
ag4
ag4
ag4
ag4
ag4
ag4
ag4
ag4
ag4
ag4
ag4
ag4
ag4
ag4
ag4
ag4
ag4
ag4
aa(lp57
g5
ag5
ag5
ag32
ag32
ag32
ag32
ag32
ag32
ag32
ag32
ag32
ag32
ag32
ag32
ag32
ag32
ag32
ag32
ag32
ag32
ag32
ag32
ag32
ag32
ag32
ag32
ag32
ag32
ag32
ag32
ag32
ag32
ag32
ag32
ag32
ag32
ag32
ag32
ag32
ag32
ag32
ag32
ag32
ag32
ag32
ag32
ag32
ag32
ag32
ag32
ag32
ag32
ag32
ag32
ag32
ag32
ag32
ag32
ag32
ag32
ag32
ag32
ag32
ag32
ag32
ag32
ag32
ag32
ag32
ag32
ag32
ag32
ag32
ag32
ag32
ag32
ag32
ag32
ag32
ag32
ag32
ag32
ag32
ag32
ag32
ag32
ag32
ag32
ag32
ag32
ag32
ag32
ag32
ag32
ag32
ag32
ag32
ag32
ag32
ag5
ag5
ag5
ag5
ag4
ag4
ag4
ag4
ag4
ag4
ag4
ag4
ag4
ag4
ag4
ag4
ag4
ag4
ag4
ag4
ag4
ag4
ag4
ag4
ag4
ag4
ag4
ag4
aa(lp58
g5
ag5
ag5
ag32
ag32
ag32
ag32
ag32
ag32
ag32
ag32
ag32
ag32
ag32
ag32
ag32
ag32
ag32
ag32
ag32
ag32
ag32
ag32
ag32
ag32
ag32
ag32
ag32
ag32
ag32
ag32
ag32
ag32
ag32
ag32
ag32
ag32
ag32
ag32
ag32
ag32
ag32
ag32
ag32
ag32
ag32
ag32
ag32
ag32
ag32
ag32
ag32
ag32
ag32
ag32
ag32
ag32
ag32
ag32
ag32
ag32
ag32
ag32
ag32
ag32
ag32
ag32
ag32
ag32
ag32
ag32
ag32
ag32
ag32
ag32
ag32
ag32
ag32
ag32
ag32
ag32
ag32
ag32
ag32
ag32
ag32
ag32
ag32
ag32
ag32
ag32
ag32
ag32
ag32
ag32
ag32
ag32
ag32
ag32
ag32
ag32
ag5
ag5
ag5
ag4
ag4
ag4
ag4
ag4
ag4
ag4
ag4
ag4
ag4
ag4
ag4
ag4
ag4
ag4
ag4
ag4
ag4
ag4
ag4
ag4
ag4
ag4
ag4
aa(lp59
g5
ag5
ag5
ag5
ag32
ag32
ag32
ag32
ag32
ag32
ag32
ag32
ag32
ag32
ag32
ag32
ag32
ag32
ag32
ag32
ag32
ag32
ag32
ag32
ag32
ag32
ag32
ag32
ag32
ag32
ag32
ag32
ag32
ag32
ag32
ag32
ag32
ag32
ag32
ag32
ag32
ag32
ag32
ag32
ag32
ag32
ag32
ag32
ag32
ag32
ag32
ag32
ag32
ag32
ag32
ag32
ag32
ag32
ag32
ag32
ag32
ag32
ag32
ag32
ag32
ag32
ag32
ag32
ag32
ag32
ag32
ag32
ag32
ag32
ag32
ag32
ag32
ag32
ag32
ag32
ag32
ag32
ag32
ag32
ag32
ag32
ag32
ag32
ag32
ag32
ag32
ag32
ag32
ag32
ag32
ag32
ag32
ag32
ag32
ag32
ag5
ag5
ag5
ag5
ag5
ag4
ag4
ag4
ag4
ag4
ag4
ag4
ag4
ag4
ag4
ag4
ag4
ag4
ag4
ag4
ag4
ag4
ag4
ag4
ag4
ag4
ag4
ag4
aa(lp60
g5
ag5
ag5
ag32
ag32
ag32
ag32
ag32
ag32
ag32
ag32
ag32
ag32
ag32
ag32
ag32
ag32
ag32
ag32
ag32
ag32
ag32
ag32
ag32
ag32
ag32
ag32
ag32
ag32
ag32
ag32
ag32
ag32
ag32
ag32
ag32
ag32
ag32
ag32
ag32
ag32
ag32
ag32
ag32
ag32
ag32
ag32
ag32
ag32
ag32
ag32
ag32
ag32
ag32
ag32
ag32
ag32
ag32
ag32
ag32
ag32
ag32
ag32
ag32
ag32
ag32
ag32
ag32
ag32
ag32
ag32
ag32
ag32
ag32
ag32
ag32
ag32
ag32
ag32
ag32
ag32
ag32
ag32
ag32
ag32
ag32
ag32
ag32
ag32
ag32
ag32
ag32
ag32
ag32
ag32
ag32
ag32
ag32
ag32
ag32
ag5
ag5
ag5
ag5
ag5
ag4
ag4
ag4
ag4
ag4
ag4
ag4
ag4
ag4
ag4
ag4
ag4
ag4
ag4
ag4
ag4
ag4
ag4
ag4
ag4
ag4
ag4
ag4
aa(lp61
g5
ag5
ag5
ag5
ag5
ag32
ag32
ag32
ag32
ag32
ag32
ag32
ag32
ag32
ag32
ag32
ag32
ag32
ag32
ag32
ag32
ag32
ag32
ag32
ag32
ag32
ag32
ag32
ag32
ag32
ag32
ag32
ag32
ag32
ag32
ag32
ag32
ag32
ag32
ag32
ag32
ag32
ag32
ag32
ag32
ag32
ag32
ag32
ag32
ag32
ag32
ag32
ag32
ag32
ag32
ag32
ag32
ag32
ag32
ag32
ag32
ag32
ag32
ag32
ag32
ag32
ag32
ag32
ag32
ag32
ag32
ag32
ag32
ag32
ag32
ag32
ag32
ag32
ag32
ag32
ag32
ag32
ag32
ag32
ag32
ag32
ag32
ag32
ag32
ag32
ag32
ag32
ag32
ag32
ag32
ag32
ag32
ag32
ag32
ag32
ag5
ag5
ag5
ag5
ag5
ag4
ag4
ag4
ag4
ag4
ag4
ag4
ag4
ag4
ag4
ag4
ag4
ag4
ag4
ag4
ag4
ag4
ag4
ag4
ag4
ag4
ag4
ag4
aa(lp62
g5
ag5
ag5
ag5
ag5
ag5
ag32
ag32
ag32
ag32
ag32
ag32
ag32
ag32
ag32
ag32
ag32
ag32
ag32
ag32
ag32
ag32
ag32
ag32
ag32
ag32
ag32
ag32
ag32
ag32
ag32
ag32
ag32
ag32
ag32
ag32
ag32
ag32
ag32
ag32
ag32
ag32
ag32
ag32
ag32
ag32
ag32
ag32
ag32
ag32
ag32
ag32
ag32
ag32
ag32
ag32
ag32
ag32
ag32
ag32
ag32
ag32
ag32
ag32
ag32
ag32
ag32
ag32
ag32
ag32
ag32
ag32
ag32
ag32
ag32
ag32
ag32
ag32
ag32
ag32
ag32
ag32
ag32
ag32
ag32
ag32
ag32
ag32
ag32
ag32
ag32
ag32
ag32
ag32
ag32
ag32
ag32
ag32
ag32
ag32
ag5
ag5
ag5
ag5
ag5
ag5
ag4
ag4
ag4
ag4
ag4
ag4
ag4
ag4
ag4
ag4
ag4
ag4
ag4
ag4
ag4
ag4
ag4
ag4
ag4
ag4
ag4
ag4
aa(lp63
g5
ag5
ag5
ag5
ag5
ag5
ag5
ag32
ag32
ag32
ag32
ag32
ag32
ag32
ag32
ag32
ag32
ag32
ag32
ag32
ag32
ag32
ag32
ag32
ag32
ag32
ag32
ag32
ag32
ag32
ag32
ag32
ag32
ag32
ag32
ag32
ag32
ag32
ag32
ag32
ag32
ag32
ag32
ag32
ag32
ag32
ag32
ag32
ag32
ag32
ag32
ag32
ag32
ag32
ag32
ag32
ag32
ag32
ag32
ag32
ag32
ag32
ag32
ag32
ag32
ag32
ag32
ag32
ag32
ag32
ag32
ag32
ag32
ag32
ag32
ag32
ag32
ag32
ag32
ag32
ag32
ag32
ag32
ag32
ag32
ag32
ag32
ag32
ag32
ag32
ag32
ag32
ag32
ag32
ag32
ag32
ag32
ag32
ag32
ag32
ag5
ag5
ag5
ag5
ag5
ag4
ag4
ag4
ag4
ag4
ag4
ag4
ag4
ag4
ag4
ag4
ag4
ag4
ag4
ag4
ag4
ag4
ag4
ag4
ag4
ag4
ag4
ag4
aa(lp64
g5
ag5
ag5
ag5
ag5
ag5
ag5
ag5
ag32
ag32
ag32
ag32
ag32
ag32
ag32
ag32
ag32
ag32
ag32
ag32
ag32
ag32
ag32
ag32
ag32
ag32
ag32
ag32
ag32
ag32
ag32
ag32
ag32
ag32
ag32
ag32
ag32
ag32
ag32
ag32
ag32
ag32
ag32
ag32
ag32
ag32
ag32
ag32
ag32
ag32
ag32
ag32
ag32
ag32
ag32
ag32
ag32
ag32
ag32
ag32
ag32
ag32
ag32
ag32
ag32
ag32
ag32
ag32
ag32
ag32
ag32
ag32
ag32
ag32
ag32
ag32
ag32
ag32
ag32
ag32
ag32
ag32
ag32
ag32
ag32
ag32
ag32
ag32
ag32
ag32
ag32
ag32
ag32
ag32
ag32
ag32
ag32
ag32
ag32
ag32
ag5
ag5
ag5
ag5
ag4
ag5
ag5
ag4
ag4
ag4
ag4
ag4
ag4
ag4
ag4
ag4
ag4
ag4
ag4
ag4
ag4
ag4
ag4
ag4
ag4
ag4
ag4
ag4
aa(lp65
g5
ag4
ag4
ag5
ag5
ag5
ag5
ag5
ag5
ag32
ag32
ag32
ag32
ag32
ag32
ag32
ag32
ag32
ag32
ag32
ag32
ag32
ag32
ag32
ag32
ag32
ag32
ag32
ag32
ag32
ag32
ag32
ag32
ag32
ag32
ag32
ag32
ag32
ag32
ag32
ag32
ag32
ag32
ag32
ag32
ag32
ag32
ag32
ag32
ag32
ag32
ag32
ag32
ag32
ag32
ag32
ag32
ag32
ag32
ag32
ag32
ag32
ag32
ag32
ag32
ag32
ag32
ag32
ag32
ag32
ag32
ag32
ag32
ag32
ag32
ag32
ag32
ag32
ag32
ag32
ag32
ag32
ag32
ag32
ag32
ag32
ag32
ag32
ag32
ag32
ag32
ag32
ag32
ag32
ag32
ag32
ag32
ag32
ag32
ag32
ag32
ag5
ag5
ag5
ag4
ag4
ag5
ag4
ag4
ag4
ag4
ag4
ag4
ag4
ag4
ag4
ag4
ag4
ag4
ag4
ag4
ag4
ag4
ag4
ag4
ag4
ag4
ag4
aa(lp66
g4
ag4
ag4
ag5
ag5
ag5
ag5
ag5
ag5
ag32
ag32
ag32
ag32
ag32
ag32
ag32
ag32
ag32
ag32
ag32
ag32
ag32
ag32
ag32
ag32
ag32
ag32
ag32
ag32
ag32
ag32
ag32
ag32
ag32
ag32
ag32
ag32
ag32
ag32
ag32
ag32
ag32
ag32
ag32
ag32
ag32
ag32
ag32
ag32
ag32
ag32
ag32
ag32
ag32
ag32
ag32
ag32
ag32
ag32
ag32
ag32
ag32
ag32
ag32
ag32
ag32
ag32
ag32
ag32
ag32
ag32
ag32
ag32
ag32
ag32
ag32
ag32
ag32
ag32
ag32
ag32
ag32
ag32
ag32
ag32
ag32
ag32
ag32
ag32
ag32
ag32
ag32
ag32
ag32
ag32
ag32
ag32
ag32
ag32
ag32
ag32
ag5
ag5
ag5
ag4
ag5
ag5
ag4
ag4
ag4
ag4
ag4
ag4
ag4
ag4
ag4
ag4
ag4
ag4
ag4
ag4
ag4
ag4
ag4
ag4
ag4
ag4
ag4
aa(lp67
g4
ag4
ag4
ag4
ag5
ag5
ag5
ag5
ag32
ag32
ag32
ag32
ag32
ag32
ag32
ag32
ag32
ag32
ag32
ag32
ag32
ag32
ag32
ag32
ag32
ag32
ag32
ag32
ag32
ag32
ag32
ag32
ag32
ag32
ag32
ag32
ag32
ag32
ag32
ag32
ag32
ag32
ag32
ag32
ag32
ag32
ag32
ag32
ag32
ag32
ag32
ag32
ag32
ag32
ag32
ag32
ag32
ag32
ag32
ag32
ag32
ag32
ag32
ag32
ag32
ag32
ag32
ag32
ag32
ag32
ag32
ag32
ag32
ag32
ag32
ag32
ag32
ag32
ag32
ag32
ag32
ag32
ag32
ag32
ag32
ag32
ag32
ag32
ag32
ag32
ag32
ag32
ag32
ag32
ag32
ag32
ag32
ag32
ag32
ag32
ag32
ag5
ag5
ag5
ag5
ag5
ag5
ag4
ag5
ag4
ag4
ag4
ag4
ag4
ag4
ag4
ag4
ag4
ag4
ag4
ag4
ag4
ag4
ag4
ag4
ag4
ag4
ag4
aa(lp68
g4
ag4
ag4
ag4
ag5
ag5
ag5
ag5
ag32
ag32
ag32
ag32
ag32
ag32
ag32
ag32
ag32
ag32
ag32
ag32
ag32
ag32
ag32
ag32
ag32
ag32
ag32
ag32
ag32
ag32
ag32
ag32
ag32
ag32
ag32
ag32
ag32
ag32
ag32
ag32
ag32
ag32
ag32
ag32
ag32
ag32
ag32
ag32
ag32
ag32
ag32
ag32
ag32
ag32
ag32
ag32
ag32
ag32
ag32
ag32
ag32
ag32
ag32
ag32
ag32
ag32
ag32
ag32
ag32
ag32
ag32
ag32
ag32
ag32
ag32
ag32
ag32
ag32
ag32
ag32
ag32
ag32
ag32
ag32
ag32
ag32
ag32
ag32
ag32
ag32
ag32
ag32
ag32
ag32
ag32
ag32
ag32
ag32
ag32
ag32
ag32
ag32
ag5
ag5
ag5
ag5
ag4
ag4
ag4
ag4
ag4
ag4
ag4
ag4
ag4
ag4
ag4
ag4
ag4
ag4
ag4
ag4
ag4
ag4
ag4
ag4
ag4
ag4
aa(lp69
g4
ag4
ag4
ag4
ag5
ag5
ag5
ag5
ag32
ag32
ag32
ag32
ag32
ag32
ag32
ag32
ag32
ag32
ag32
ag32
ag32
ag32
ag32
ag32
ag32
ag32
ag32
ag32
ag32
ag32
ag32
ag32
ag32
ag32
ag32
ag32
ag32
ag32
ag32
ag32
ag32
ag32
ag32
ag32
ag32
ag32
ag32
ag32
ag32
ag32
ag32
ag32
ag32
ag32
ag32
ag32
ag32
ag32
ag32
ag32
ag32
ag32
ag32
ag32
aS'steppe'
p70
ag32
ag32
ag32
ag32
ag32
ag32
ag32
ag32
ag32
ag32
ag32
ag32
ag32
ag32
ag32
ag32
ag32
ag32
ag32
ag32
ag32
ag32
ag32
ag32
ag32
ag32
ag32
ag32
ag32
ag32
ag32
ag32
ag32
ag32
ag32
ag32
ag32
ag5
ag5
ag5
ag5
ag5
ag4
ag4
ag4
ag4
ag4
ag4
ag4
ag4
ag4
ag4
ag4
ag4
ag4
ag4
ag4
ag4
ag4
ag4
ag4
ag4
ag4
aa(lp71
g4
ag4
ag4
ag4
ag4
ag5
ag5
ag5
ag32
ag32
ag32
ag32
ag32
ag32
ag32
ag32
ag32
ag32
ag32
ag32
ag32
ag32
ag32
ag32
ag32
ag32
ag32
ag32
ag32
ag32
ag32
ag32
ag32
ag32
ag32
ag32
ag32
ag32
ag32
ag32
ag32
ag32
ag32
ag32
ag32
ag32
ag32
ag32
ag32
ag32
ag32
ag32
ag32
ag32
ag32
ag32
ag32
ag32
ag32
ag32
ag70
ag32
ag32
ag32
ag70
ag70
ag32
ag32
ag32
ag32
ag32
ag32
ag32
ag32
ag32
ag32
ag32
ag32
ag32
ag32
ag32
ag32
ag32
ag32
ag32
ag32
ag32
ag32
ag32
ag32
ag32
ag32
ag32
ag32
ag32
ag32
ag32
ag32
ag32
ag32
ag32
ag5
ag5
ag5
ag4
ag4
ag5
ag5
ag5
ag4
ag4
ag4
ag4
ag4
ag4
ag4
ag4
ag4
ag4
ag4
ag4
ag4
ag4
ag4
ag4
ag4
ag4
ag4
aa(lp72
g4
ag4
ag4
ag4
ag4
ag5
ag5
ag32
ag32
ag32
ag32
ag32
ag32
ag32
ag32
ag32
ag32
ag32
ag32
ag32
ag32
ag32
ag32
ag32
ag32
ag32
ag32
ag32
ag32
ag32
ag32
ag32
ag32
ag32
ag32
ag32
ag32
ag32
ag32
ag32
ag32
ag32
ag32
ag32
ag32
ag32
ag32
ag32
ag32
ag32
ag32
ag32
ag32
ag32
ag32
ag32
ag32
ag32
ag32
ag32
ag32
ag32
ag32
ag70
ag70
ag70
ag70
ag70
ag70
ag32
ag32
ag32
ag32
ag32
ag32
ag32
ag32
ag32
ag32
ag32
ag32
ag32
ag32
ag32
ag32
ag32
ag32
ag32
ag32
ag32
ag32
ag32
ag32
ag32
ag32
ag32
ag32
ag32
ag32
ag32
ag32
ag32
ag5
ag5
ag5
ag5
ag5
ag5
ag5
ag5
ag4
ag4
ag4
ag4
ag4
ag4
ag4
ag4
ag4
ag4
ag4
ag4
ag4
ag4
ag4
ag4
ag4
ag4
aa(lp73
g4
ag4
ag4
ag4
ag4
ag5
ag5
ag5
ag5
ag32
ag32
ag32
ag32
ag32
ag32
ag32
ag32
ag32
ag32
ag32
ag32
ag32
ag32
ag32
ag32
ag32
ag32
ag32
ag32
ag32
ag32
ag32
ag32
ag32
ag32
ag32
ag32
ag32
ag32
ag32
ag32
ag32
ag32
ag32
ag32
ag32
ag32
ag32
ag32
ag32
ag32
ag32
ag32
ag32
ag32
ag32
ag32
ag32
ag32
ag32
ag70
ag32
ag32
ag32
ag70
ag70
ag70
ag70
ag70
ag70
ag32
ag32
ag32
ag32
ag70
ag70
ag32
ag32
ag32
ag32
ag32
ag32
ag32
ag32
ag32
ag32
ag32
ag32
ag32
ag32
ag32
ag32
ag32
ag32
ag32
ag32
ag32
ag32
ag32
ag32
ag32
ag32
ag5
ag5
ag5
ag5
ag5
ag5
ag5
ag5
ag4
ag4
ag4
ag4
ag4
ag4
ag4
ag4
ag4
ag4
ag4
ag4
ag4
ag4
ag4
ag4
ag4
ag4
aa(lp74
g4
ag4
ag4
ag4
ag4
ag5
ag5
ag5
ag5
ag5
ag5
ag32
ag32
ag32
ag32
ag32
ag32
ag32
ag32
ag32
ag32
ag32
ag32
ag32
ag32
ag32
ag32
ag32
ag32
ag32
ag32
ag32
ag32
ag32
ag32
ag32
ag32
ag32
ag32
ag32
ag32
ag32
ag32
ag32
ag32
ag32
ag32
ag32
ag32
ag32
ag32
ag32
ag32
ag32
ag32
ag32
ag32
ag32
ag32
ag32
ag32
ag32
ag32
ag70
ag70
ag70
ag70
ag70
ag70
ag70
ag70
ag70
ag70
ag70
ag70
ag70
ag70
ag32
ag32
ag32
ag32
ag32
ag32
ag32
ag32
ag32
ag32
ag32
ag32
ag32
ag32
ag32
ag32
ag32
ag32
ag32
ag32
ag32
ag32
ag32
ag32
ag32
ag5
ag32
ag5
ag5
ag5
ag5
ag5
ag5
ag4
ag4
ag4
ag4
ag4
ag4
ag4
ag4
ag4
ag4
ag4
ag4
ag4
ag4
ag4
ag4
ag4
ag4
aa(lp75
g4
ag4
ag4
ag4
ag4
ag5
ag5
ag5
ag5
ag5
ag5
ag32
ag32
ag32
ag32
ag32
ag32
ag32
ag32
ag32
ag32
ag32
ag32
ag32
ag32
ag32
ag32
ag32
ag32
ag32
ag32
ag32
ag32
ag32
ag32
ag32
ag32
ag32
ag32
ag32
ag32
ag32
ag32
ag32
ag32
ag32
ag32
ag32
ag32
ag32
ag32
ag32
ag32
ag32
ag32
ag32
ag32
ag32
ag32
ag32
ag32
ag32
ag32
ag70
ag70
ag70
ag70
ag70
aS'dirt'
p76
ag70
ag70
ag70
ag70
ag70
ag70
ag70
ag70
ag70
ag32
ag32
ag32
ag32
ag32
ag32
ag32
ag32
ag32
ag32
ag32
ag32
ag32
ag32
ag32
ag32
ag32
ag32
ag32
ag32
ag32
ag32
ag32
ag32
ag32
ag32
ag32
ag5
ag5
ag5
ag5
ag5
ag5
ag4
ag5
ag4
ag4
ag4
ag4
ag4
ag4
ag4
ag4
ag4
ag4
ag4
ag4
ag4
ag4
ag4
aa(lp77
g4
ag4
ag4
ag4
ag5
ag5
ag5
ag5
ag5
ag5
ag5
ag32
ag32
ag32
ag32
ag32
ag32
ag32
ag32
ag32
ag32
ag32
ag32
ag32
ag32
ag32
ag32
ag32
ag32
ag32
ag32
ag32
ag32
ag32
ag32
ag32
ag32
ag32
ag32
ag32
ag32
ag32
ag32
ag32
ag32
ag32
ag32
ag32
ag32
ag32
ag32
ag32
ag32
ag32
ag32
ag32
ag32
ag32
ag32
ag32
ag32
ag32
ag70
ag70
ag70
ag70
ag70
ag70
ag70
ag70
ag70
ag70
ag70
ag70
ag70
ag70
ag70
ag70
ag70
ag32
ag32
ag32
ag32
ag32
ag32
ag32
ag32
ag32
ag32
ag32
ag32
ag32
ag32
ag32
ag32
ag32
ag32
ag32
ag32
ag32
ag32
ag32
ag32
ag32
ag32
ag5
ag5
ag5
ag5
ag5
ag4
ag5
ag5
ag4
ag4
ag4
ag4
ag4
ag4
ag4
ag4
ag4
ag4
ag4
ag4
ag4
ag4
ag4
aa(lp78
g4
ag4
ag4
ag4
ag5
ag5
ag5
ag5
ag5
ag5
ag5
ag32
ag32
ag32
ag32
ag32
ag32
ag32
ag32
ag32
ag32
ag32
ag32
ag32
ag32
ag32
ag32
ag32
ag32
ag32
ag32
ag32
ag32
ag32
ag32
ag32
ag32
ag32
ag32
ag32
ag32
ag32
ag32
ag32
ag32
ag32
ag32
ag32
ag32
ag32
ag32
ag32
ag32
ag32
ag32
ag32
ag32
ag32
ag32
ag32
ag32
ag70
ag70
ag70
ag70
ag70
ag70
ag70
ag70
ag70
ag70
ag70
ag76
ag70
ag70
ag70
ag70
ag70
ag70
ag70
ag32
ag32
ag32
ag32
ag32
ag32
ag32
ag32
ag32
ag32
ag32
ag32
ag32
ag32
ag32
ag32
ag32
ag32
ag32
ag32
ag32
ag32
ag32
ag32
ag32
ag5
ag5
ag5
ag5
ag4
ag4
ag4
ag5
ag4
ag4
ag4
ag4
ag4
ag4
ag4
ag4
ag4
ag4
ag4
ag4
ag4
ag4
ag4
aa(lp79
g4
ag4
ag4
ag4
ag5
ag5
ag5
ag5
ag5
ag5
ag5
ag32
ag32
ag32
ag32
ag32
ag32
ag32
ag32
ag32
ag32
ag32
ag32
ag32
ag32
ag32
ag32
ag32
ag32
ag32
ag32
ag32
ag32
ag32
ag32
ag32
ag32
ag32
ag32
ag32
ag32
ag32
ag32
ag32
ag32
ag32
ag32
ag32
ag32
ag32
ag32
ag32
ag32
ag32
ag32
ag32
ag32
ag32
ag32
ag70
ag70
ag70
ag70
ag70
ag76
ag76
ag70
ag70
ag76
ag70
ag76
ag76
ag76
ag76
ag76
ag70
ag70
ag70
ag70
ag70
ag70
ag70
ag32
ag32
ag32
ag32
ag32
ag32
ag32
ag32
ag32
ag32
ag32
ag32
ag32
ag32
ag32
ag32
ag32
ag32
ag32
ag32
ag32
ag32
ag5
ag5
ag5
ag5
ag5
ag4
ag4
ag5
ag4
ag4
ag4
ag4
ag4
ag4
ag4
ag4
ag4
ag4
ag4
ag4
ag4
ag4
ag4
ag4
aa(lp80
g4
ag4
ag4
ag4
ag5
ag5
ag5
ag5
ag32
ag32
ag5
ag32
ag32
ag32
ag32
ag32
ag32
ag32
ag32
ag32
ag32
ag32
ag32
ag32
ag32
ag32
ag32
ag32
ag32
ag32
ag32
ag32
ag32
ag32
ag32
ag32
ag32
ag32
ag32
ag32
ag32
ag32
ag32
ag32
ag32
ag32
ag32
ag32
ag32
ag32
ag32
ag32
ag32
ag32
ag32
ag32
ag32
ag32
ag32
ag70
ag70
ag70
ag70
ag70
ag76
ag76
ag70
ag76
ag76
ag76
ag76
ag76
ag76
ag70
ag70
ag76
ag70
ag70
ag70
ag70
ag70
ag70
ag70
ag32
ag32
ag32
ag32
ag32
ag32
ag32
ag32
ag32
ag32
ag32
ag32
ag32
ag32
ag32
ag32
ag32
ag32
ag32
ag32
ag32
ag5
ag5
ag5
ag4
ag5
ag4
ag4
ag4
ag5
ag5
ag4
ag4
ag4
ag4
ag4
ag4
ag4
ag4
ag4
ag4
ag4
ag4
ag4
ag4
aa(lp81
g4
ag4
ag4
ag4
ag4
ag5
ag5
ag5
ag5
ag5
ag32
ag32
ag32
ag32
ag32
ag32
ag32
ag32
ag32
ag32
ag32
ag32
ag32
ag32
ag32
ag32
ag32
ag32
ag32
ag32
ag32
ag32
ag32
ag32
ag32
ag32
ag32
ag32
ag32
ag32
ag32
ag32
ag32
ag32
ag32
ag32
ag32
ag32
ag32
ag32
ag32
ag32
ag32
ag32
ag32
ag32
ag32
ag32
ag32
ag70
ag70
ag70
ag70
ag70
ag70
ag76
ag76
ag76
ag76
ag76
ag76
ag76
ag76
ag70
ag70
ag76
ag76
ag70
ag70
ag70
ag70
ag70
ag70
ag32
ag32
ag32
ag32
ag32
ag32
ag32
ag32
ag32
ag32
ag32
ag32
ag32
ag32
ag32
ag32
ag32
ag32
ag32
ag32
ag5
ag5
ag5
ag5
ag5
ag5
ag5
ag5
ag4
ag5
ag4
ag4
ag4
ag4
ag4
ag4
ag4
ag4
ag4
ag4
ag4
ag4
ag4
ag4
ag4
aa(lp82
g4
ag4
ag4
ag4
ag4
ag4
ag5
ag5
ag5
ag5
ag32
ag32
ag32
ag32
ag32
ag32
ag32
ag32
ag32
ag32
ag32
ag32
ag32
ag32
ag32
ag32
ag32
ag32
ag32
ag32
ag32
ag32
ag32
ag32
ag32
ag32
ag32
ag32
ag32
ag32
ag32
ag32
ag32
ag32
ag32
ag32
ag32
ag32
ag32
ag32
ag32
ag32
ag32
ag32
ag32
ag32
ag32
ag32
ag32
ag32
ag70
ag70
ag70
ag70
ag76
ag76
ag76
ag76
ag76
ag76
ag76
ag76
ag76
ag70
ag70
ag70
ag70
ag70
ag70
ag70
ag70
ag70
ag70
ag70
ag32
ag32
ag32
ag32
ag32
ag32
ag32
ag32
ag32
ag32
ag32
ag32
ag32
ag32
ag32
ag32
ag32
ag32
ag32
ag32
ag5
ag5
ag5
ag5
ag5
ag5
ag4
ag4
ag5
ag4
ag4
ag4
ag4
ag4
ag4
ag4
ag4
ag4
ag4
ag4
ag4
ag4
ag4
ag4
aa(lp83
g4
ag4
ag4
ag4
ag4
ag4
ag5
ag5
ag5
ag5
ag32
ag32
ag32
ag32
ag32
ag32
ag32
ag32
ag32
ag32
ag32
ag32
ag32
ag32
ag32
ag32
ag32
ag32
ag32
ag32
ag32
ag32
ag32
ag32
ag32
ag32
ag32
ag32
ag32
ag32
ag32
ag32
ag32
ag32
ag32
ag32
ag32
ag32
ag32
ag32
ag32
ag32
ag32
ag32
ag32
ag32
ag32
ag32
ag32
ag32
ag32
ag70
ag70
ag70
ag70
ag76
ag76
ag76
ag76
ag76
ag76
ag76
ag76
ag76
ag76
ag70
ag70
ag70
ag70
ag70
ag70
ag70
ag70
ag70
ag32
ag32
ag32
ag32
ag32
ag32
ag32
ag32
ag32
ag32
ag32
ag32
ag32
ag32
ag32
ag32
ag32
ag32
ag32
ag32
ag5
ag5
ag5
ag5
ag5
ag5
ag4
ag4
ag4
ag4
ag4
ag4
ag4
ag4
ag4
ag4
ag4
ag4
ag4
ag4
ag4
ag4
ag4
ag4
aa(lp84
g4
ag4
ag4
ag4
ag5
ag5
ag5
ag5
ag5
ag5
ag32
ag32
ag32
ag32
ag32
ag32
ag32
ag32
ag32
ag32
ag32
ag32
ag32
ag32
ag32
ag32
ag32
ag32
ag32
ag32
ag32
ag32
ag32
ag32
ag32
ag32
ag32
ag32
ag32
ag32
ag32
ag32
ag32
ag32
ag32
ag32
ag32
ag32
ag32
ag32
ag32
ag32
ag32
ag32
ag32
ag32
ag32
ag32
ag32
ag32
ag32
ag70
ag70
ag70
ag70
ag76
ag70
ag70
ag76
ag76
ag76
ag76
ag76
ag70
ag76
ag70
ag76
ag76
ag70
ag70
ag70
ag70
ag70
ag70
ag70
ag32
ag32
ag32
ag32
ag32
ag32
ag32
ag32
ag32
ag32
ag32
ag32
ag32
ag32
ag32
ag32
ag32
ag5
ag5
ag5
ag5
ag5
ag5
ag5
ag5
ag5
ag4
ag4
ag4
ag4
ag4
ag4
ag4
ag4
ag4
ag4
ag4
ag4
ag4
ag4
ag4
ag4
ag4
aa(lp85
g4
ag4
ag4
ag4
ag5
ag5
ag5
ag5
ag32
ag32
ag32
ag32
ag32
ag32
ag32
ag32
ag32
ag32
ag32
ag32
ag32
ag32
ag32
ag32
ag32
ag32
ag32
ag32
ag32
ag32
ag32
ag32
ag32
ag32
ag32
ag32
ag32
ag32
ag32
ag32
ag32
ag32
ag32
ag32
ag32
ag32
ag32
ag32
ag32
ag32
ag32
ag32
ag32
ag32
ag32
ag32
ag32
ag32
ag32
ag32
ag32
ag70
ag70
ag70
ag76
ag76
ag76
ag70
ag70
ag70
ag70
ag70
ag70
ag70
ag70
ag70
ag70
ag70
ag70
ag70
ag70
ag70
ag70
ag70
ag70
ag32
ag32
ag32
ag32
ag32
ag32
ag32
ag32
ag32
ag32
ag32
ag32
ag32
ag32
ag32
ag32
ag32
ag32
ag5
ag5
ag5
ag5
ag5
ag5
ag5
ag5
ag4
ag4
ag4
ag4
ag4
ag4
ag4
ag4
ag4
ag4
ag4
ag4
ag4
ag4
ag4
ag4
ag4
aa(lp86
g4
ag4
ag4
ag4
ag5
ag5
ag5
ag32
ag32
ag32
ag32
ag32
ag32
ag32
ag32
ag32
ag32
ag32
ag32
ag32
ag32
ag32
ag32
ag32
ag32
ag32
ag32
ag32
ag32
ag32
ag32
ag32
ag32
ag32
ag32
ag32
ag32
ag32
ag32
ag32
ag32
ag32
ag32
ag32
ag32
ag32
ag32
ag32
ag32
ag32
ag32
ag32
ag32
ag32
ag32
ag32
ag32
ag32
ag32
ag32
ag70
ag70
ag70
ag76
ag76
ag76
ag76
ag70
ag70
ag70
ag70
ag70
ag70
ag70
ag70
ag70
ag70
ag70
ag70
ag70
ag70
ag70
ag70
ag32
ag32
ag32
ag32
ag32
ag32
ag32
ag32
ag32
ag32
ag32
ag32
ag32
ag32
ag32
ag32
ag32
ag32
ag32
ag32
ag32
ag5
ag5
ag5
ag5
ag5
ag5
ag5
ag5
ag4
ag4
ag4
ag4
ag4
ag4
ag4
ag4
ag4
ag4
ag4
ag4
ag4
ag4
ag4
ag4
aa(lp87
g4
ag4
ag4
ag4
ag5
ag5
ag5
ag5
ag32
ag32
ag32
ag32
ag32
ag32
ag32
ag32
ag32
ag32
ag32
ag32
ag32
ag32
ag32
ag32
ag32
ag32
ag32
ag32
ag32
ag32
ag32
ag32
ag32
ag32
ag32
ag32
ag32
ag32
ag32
ag32
ag32
ag32
ag32
ag32
ag32
ag32
ag32
ag32
ag32
ag32
ag32
ag32
ag32
ag32
ag32
ag32
ag32
ag32
ag32
ag70
ag70
ag70
ag70
ag76
ag76
ag76
ag70
ag70
ag70
ag70
ag70
ag70
ag70
ag70
ag70
ag70
ag70
ag70
ag70
ag70
ag70
ag70
ag70
ag32
ag32
ag32
ag32
ag32
ag32
ag32
ag32
ag32
ag32
ag32
ag32
ag32
ag32
ag32
ag32
ag32
ag32
ag32
ag32
ag32
ag32
ag32
ag5
ag5
ag5
ag5
ag4
ag4
ag4
ag4
ag4
ag4
ag4
ag4
ag4
ag4
ag4
ag4
ag4
ag4
ag4
ag4
ag4
ag4
aa(lp88
g4
ag4
ag4
ag5
ag5
ag5
ag5
ag5
ag32
ag32
ag32
ag32
ag32
ag32
ag32
ag32
ag32
ag32
ag32
ag32
ag32
ag32
ag32
ag32
ag32
ag32
ag32
ag32
ag32
ag32
ag32
ag32
ag32
ag32
ag32
ag32
ag32
ag32
ag32
ag32
ag32
ag32
ag32
ag32
ag32
ag32
ag32
ag32
ag32
ag32
ag32
ag32
ag32
ag32
ag32
ag32
ag32
ag32
ag32
ag70
ag70
ag70
ag70
ag70
ag76
ag76
ag70
ag70
ag70
ag70
ag70
ag70
ag70
ag70
ag70
ag70
ag70
ag70
ag70
ag70
ag70
ag70
ag70
ag32
ag32
ag32
ag32
ag32
ag32
ag32
ag32
ag32
ag32
ag32
ag32
ag32
ag32
ag32
ag32
ag32
ag5
ag32
ag32
ag32
ag32
ag32
ag32
ag5
ag5
ag5
ag4
ag4
ag4
ag4
ag4
ag4
ag4
ag4
ag4
ag4
ag4
ag4
ag4
ag4
ag4
ag4
ag4
ag4
aa(lp89
g4
ag4
ag4
ag5
ag5
ag5
ag32
ag32
ag32
ag32
ag32
ag32
ag32
ag32
ag32
ag32
ag32
ag32
ag32
ag32
ag32
ag32
ag32
ag32
ag32
ag32
ag32
ag32
ag32
ag32
ag32
ag32
ag32
ag32
ag32
ag32
ag32
ag32
ag32
ag32
ag32
ag32
ag32
ag32
ag32
ag32
ag32
ag32
ag32
ag32
ag32
ag32
ag32
ag32
ag32
ag32
ag32
ag32
ag32
ag32
ag70
ag70
ag70
ag70
ag76
ag76
ag70
ag70
ag70
ag70
ag70
ag70
ag70
ag70
ag70
ag70
ag70
ag70
ag70
ag70
ag70
ag70
ag32
ag32
ag32
ag32
ag32
ag32
ag32
ag32
ag32
ag32
ag32
ag32
ag32
ag32
ag32
ag32
ag32
ag32
ag32
ag5
ag32
ag32
ag32
ag32
ag32
ag5
ag5
ag5
ag5
ag4
ag4
ag4
ag4
ag4
ag4
ag4
ag4
ag4
ag4
ag4
ag4
ag4
ag4
ag4
ag4
ag4
aa(lp90
g4
ag4
ag4
ag4
ag5
ag5
ag32
ag32
ag5
ag32
ag32
ag32
ag32
ag32
ag32
ag32
ag32
ag32
ag32
ag32
ag32
ag32
ag32
ag32
ag32
ag32
ag32
ag32
ag32
ag32
ag32
ag32
ag32
ag32
ag32
ag32
ag32
ag32
ag32
ag32
ag32
ag32
ag32
ag32
ag32
ag32
ag32
ag32
ag32
ag32
ag32
ag32
ag32
ag32
ag32
ag32
ag32
ag32
ag32
ag32
ag70
ag70
ag70
ag70
ag76
ag76
ag70
ag70
ag70
ag70
ag70
ag70
ag70
ag70
ag70
ag70
ag70
ag70
ag32
ag32
ag70
ag32
ag32
ag32
ag32
ag32
ag32
ag32
ag32
ag32
ag32
ag32
ag32
ag32
ag32
ag32
ag32
ag32
ag5
ag5
ag5
ag5
ag32
ag32
ag32
ag5
ag32
ag5
ag5
ag5
ag5
ag5
ag5
ag5
ag4
ag4
ag4
ag4
ag4
ag4
ag4
ag4
ag4
ag4
ag4
ag4
ag4
ag4
aa(lp91
g4
ag4
ag4
ag4
ag5
ag5
ag5
ag5
ag32
ag32
ag32
ag32
ag32
ag32
ag32
ag32
ag32
ag32
ag32
ag32
ag32
ag32
ag32
ag32
ag32
ag32
ag32
ag32
ag32
ag32
ag32
ag32
ag32
ag32
ag32
ag32
ag32
ag32
ag32
ag32
ag32
ag32
ag32
ag32
ag32
ag32
ag32
ag32
ag32
ag32
ag32
ag32
ag32
ag32
ag32
ag32
ag32
ag32
ag32
ag32
ag70
ag70
ag70
ag70
ag70
ag76
ag70
ag70
ag70
ag70
ag70
ag70
ag70
ag70
ag70
ag70
ag70
ag32
ag32
ag32
ag32
ag32
ag32
ag32
ag32
ag32
ag32
ag32
ag32
ag32
ag32
ag32
ag32
ag32
ag32
ag32
ag32
ag32
ag5
ag5
ag32
ag32
ag32
ag32
ag32
ag32
ag32
ag5
ag5
ag5
ag5
ag5
ag5
ag5
ag5
ag4
ag4
ag4
ag4
ag4
ag4
ag4
ag4
ag4
ag4
ag4
ag4
ag4
aa(lp92
g4
ag4
ag4
ag4
ag4
ag5
ag5
ag32
ag32
ag32
ag32
ag32
ag5
ag5
ag5
ag5
ag32
ag32
ag5
ag32
ag32
ag32
ag32
ag32
ag32
ag32
ag32
ag32
ag32
ag32
ag32
ag32
ag32
ag32
ag32
ag32
ag32
ag32
ag32
ag32
ag32
ag32
ag32
ag32
ag32
ag32
ag32
ag32
ag32
ag32
ag32
ag32
ag32
ag32
ag32
ag32
ag32
ag32
ag32
ag70
ag70
ag70
ag70
ag70
ag70
ag70
ag76
ag76
ag70
ag70
ag70
ag70
ag70
ag70
ag70
ag70
ag70
ag32
ag32
ag32
ag32
ag32
ag32
ag32
ag32
ag32
ag32
ag32
ag32
ag32
ag32
ag32
ag32
ag32
ag32
ag32
ag32
ag32
ag5
ag5
ag5
ag5
ag32
ag32
ag32
ag32
ag32
ag5
ag5
ag5
ag5
ag5
ag5
ag5
ag4
ag4
ag4
ag4
ag4
ag4
ag4
ag4
ag4
ag4
ag4
ag4
ag4
ag4
aa(lp93
g4
ag4
ag4
ag4
ag4
ag5
ag5
ag32
ag32
ag32
ag32
ag5
ag5
ag5
ag5
ag5
ag5
ag32
ag32
ag32
ag32
ag32
ag32
ag32
ag32
ag32
ag32
ag32
ag32
ag32
ag32
ag32
ag32
ag32
ag32
ag32
ag32
ag32
ag32
ag32
ag32
ag32
ag32
ag32
ag32
ag32
ag32
ag32
ag32
ag32
ag32
ag32
ag32
ag32
ag32
ag32
ag32
ag32
ag32
ag70
ag70
ag70
ag70
ag70
ag70
ag70
ag70
ag76
ag70
ag70
ag70
ag70
ag70
ag70
ag70
ag70
ag70
ag32
ag32
ag32
ag32
ag32
ag32
ag32
ag32
ag32
ag32
ag32
ag32
ag32
ag32
ag32
ag32
ag32
ag32
ag32
ag32
ag32
ag32
ag5
ag5
ag5
ag32
ag32
ag32
ag32
ag32
ag5
ag5
ag5
ag5
ag5
ag5
ag5
ag4
ag5
ag4
ag4
ag4
ag4
ag4
ag4
ag4
ag4
ag4
ag4
ag4
ag4
aa(lp94
g4
ag4
ag4
ag4
ag4
ag5
ag5
ag32
ag32
ag32
ag5
ag5
ag32
ag5
ag5
ag5
ag5
ag5
ag5
ag32
ag5
ag32
ag32
ag32
ag32
ag5
ag5
ag32
ag32
ag32
ag32
ag32
ag32
ag32
ag32
ag32
ag32
ag32
ag32
ag32
ag32
ag32
ag32
ag32
ag32
ag32
ag32
ag32
ag32
ag32
ag32
ag32
ag32
ag32
ag32
ag32
ag32
ag32
ag32
ag70
ag70
ag70
ag70
ag70
ag70
ag70
ag70
ag70
ag70
ag70
ag70
ag70
ag70
ag70
ag70
ag70
ag70
ag32
ag32
ag32
ag32
ag32
ag32
ag32
ag32
ag32
ag32
ag32
ag32
ag32
ag32
ag32
ag32
ag32
ag32
ag32
ag32
ag32
ag32
ag32
ag5
ag32
ag32
ag32
ag32
ag32
ag32
ag32
ag32
ag5
ag5
ag5
ag5
ag5
ag5
ag4
ag4
ag4
ag4
ag4
ag4
ag4
ag4
ag4
ag4
ag4
ag4
ag4
aa(lp95
g4
ag4
ag4
ag4
ag5
ag5
ag5
ag32
ag32
ag32
ag32
ag32
ag32
ag32
ag5
ag5
ag5
ag5
ag5
ag5
ag5
ag5
ag5
ag5
ag32
ag5
ag5
ag5
ag5
ag5
ag5
ag5
ag32
ag32
ag32
ag32
ag32
ag32
ag32
ag32
ag5
ag32
ag32
ag32
ag32
ag32
ag32
ag32
ag32
ag32
ag32
ag32
ag32
ag32
ag32
ag32
ag32
ag32
ag32
ag70
ag70
ag70
ag70
ag70
ag70
ag70
ag70
ag70
ag76
ag76
ag76
ag70
ag70
ag70
ag70
ag32
ag32
ag32
ag32
ag32
ag32
ag32
ag32
ag32
ag32
ag32
ag32
ag32
ag32
ag32
ag32
ag32
ag32
ag32
ag32
ag32
ag32
ag32
ag32
ag32
ag32
ag5
ag32
ag32
ag5
ag32
ag5
ag5
ag5
ag5
ag5
ag5
ag5
ag5
ag5
ag4
ag4
ag4
ag4
ag4
ag4
ag4
ag4
ag4
ag4
ag4
ag4
ag4
aa(lp96
g4
ag4
ag4
ag4
ag5
ag5
ag5
ag32
ag32
ag32
ag32
ag32
ag32
ag32
ag5
ag5
ag5
ag5
ag5
ag5
ag5
ag5
ag5
ag5
ag5
ag5
ag5
ag5
ag5
ag5
ag5
ag5
ag5
ag5
ag5
ag5
ag32
ag32
ag5
ag5
ag5
ag5
ag32
ag32
ag32
ag32
ag32
ag32
ag32
ag32
ag32
ag32
ag32
ag32
ag32
ag32
ag32
ag32
ag32
ag32
ag70
ag70
ag70
ag70
ag70
ag70
ag70
ag70
ag76
ag76
ag76
ag76
ag70
ag70
ag70
ag70
ag32
ag32
ag32
ag32
ag32
ag32
ag32
ag32
ag32
ag32
ag32
ag32
ag32
ag32
ag32
ag32
ag32
ag32
ag32
ag32
ag32
ag32
ag32
ag32
ag32
ag32
ag5
ag5
ag5
ag5
ag5
ag5
ag5
ag5
ag5
ag5
ag5
ag5
ag4
ag4
ag4
ag4
ag4
ag4
ag4
ag4
ag4
ag4
ag4
ag4
ag4
ag4
aa(lp97
g4
ag4
ag4
ag4
ag5
ag5
ag32
ag32
ag32
ag32
ag32
ag5
ag5
ag5
ag5
ag5
ag5
ag5
ag5
ag5
ag5
ag5
ag5
ag5
ag5
ag5
ag4
ag4
ag4
ag4
ag5
ag5
ag5
ag5
ag5
ag5
ag5
ag5
ag5
ag5
ag5
ag5
ag5
ag32
ag32
ag32
ag32
ag32
ag32
ag32
ag32
ag32
ag32
ag32
ag32
ag32
ag32
ag32
ag32
ag32
ag70
ag32
ag70
ag70
ag70
ag70
ag70
ag70
ag76
ag76
ag76
ag70
ag70
ag70
ag70
ag32
ag32
ag32
ag32
ag32
ag32
ag32
ag32
ag32
ag32
ag32
ag32
ag32
ag32
ag32
ag32
ag32
ag32
ag32
ag32
ag32
ag32
ag32
ag32
ag32
ag32
ag32
ag5
ag5
ag5
ag5
ag5
ag5
ag5
ag5
ag5
ag5
ag5
ag5
ag4
ag4
ag4
ag4
ag4
ag4
ag4
ag4
ag4
ag4
ag4
ag4
ag4
ag4
aa(lp98
g4
ag4
ag4
ag5
ag5
ag5
ag5
ag5
ag32
ag5
ag5
ag5
ag5
ag5
ag5
ag5
ag5
ag5
ag5
ag5
ag5
ag5
ag5
ag5
ag4
ag4
ag4
ag4
ag4
ag4
ag5
ag5
ag5
ag4
ag4
ag5
ag4
ag4
ag4
ag4
ag4
ag5
ag5
ag5
ag32
ag32
ag32
ag32
ag32
ag32
ag32
ag32
ag32
ag32
ag32
ag32
ag32
ag32
ag32
ag32
ag32
ag70
ag32
ag70
ag70
ag70
ag70
ag70
ag70
ag70
ag70
ag70
ag70
ag70
ag32
ag32
ag32
ag32
ag32
ag32
ag32
ag32
ag32
ag32
ag32
ag32
ag32
ag32
ag32
ag32
ag32
ag32
ag32
ag32
ag32
ag32
ag32
ag32
ag32
ag32
ag32
ag5
ag5
ag5
ag5
ag5
ag5
ag5
ag5
ag5
ag5
ag5
ag5
ag5
ag4
ag4
ag4
ag4
ag4
ag4
ag4
ag4
ag4
ag4
ag4
ag4
ag4
ag4
aa(lp99
g4
ag4
ag4
ag5
ag5
ag5
ag5
ag5
ag5
ag5
ag5
ag5
ag5
ag5
ag5
ag5
ag5
ag5
ag5
ag5
ag5
ag5
ag4
ag4
ag4
ag4
ag4
ag4
ag4
ag4
ag4
ag4
ag4
ag4
ag4
ag4
ag4
ag4
ag4
ag4
ag4
ag4
ag5
ag5
ag5
ag32
ag32
ag32
ag32
ag32
ag32
ag32
ag32
ag32
ag32
ag32
ag32
ag32
ag32
ag32
ag32
ag70
ag32
ag32
ag32
ag70
ag70
ag70
ag70
ag70
ag70
ag70
ag70
ag70
ag70
ag70
ag32
ag32
ag32
ag32
ag32
ag32
ag32
ag32
ag32
ag32
ag32
ag32
ag32
ag32
ag32
ag32
ag32
ag32
ag32
ag32
ag32
ag32
ag32
ag5
ag5
ag5
ag5
ag5
ag5
ag5
ag4
ag5
ag4
ag5
ag5
ag5
ag5
ag5
ag4
ag4
ag4
ag4
ag4
ag4
ag4
ag4
ag4
ag4
ag4
ag4
ag4
ag4
aa(lp100
g4
ag4
ag5
ag5
ag5
ag5
ag5
ag5
ag5
ag5
ag5
ag5
ag5
ag5
ag5
ag5
ag5
ag5
ag5
ag5
ag5
ag5
ag4
ag4
ag4
ag4
ag4
ag4
ag4
ag4
ag4
ag4
ag4
ag4
ag4
ag4
ag4
ag4
ag4
ag4
ag4
ag4
ag5
ag5
ag5
ag32
ag32
ag32
ag32
ag32
ag32
ag32
ag32
ag32
ag32
ag32
ag32
ag32
ag32
ag32
ag32
ag32
ag70
ag32
ag32
ag70
ag70
ag70
ag70
ag70
ag70
ag70
ag70
ag70
ag70
ag32
ag32
ag32
ag32
ag32
ag32
ag32
ag32
ag32
ag32
ag32
ag32
ag32
ag32
ag32
ag32
ag32
ag32
ag32
ag5
ag32
ag32
ag32
ag5
ag5
ag5
ag5
ag5
ag5
ag5
ag5
ag4
ag4
ag4
ag5
ag5
ag5
ag5
ag5
ag4
ag4
ag4
ag4
ag4
ag4
ag4
ag4
ag4
ag4
ag4
ag4
ag4
ag4
aa(lp101
g4
ag4
ag5
ag5
ag5
ag5
ag5
ag5
ag5
ag5
ag5
ag5
ag5
ag5
ag5
ag5
ag5
ag5
ag5
ag4
ag4
ag4
ag4
ag4
ag4
ag4
ag4
ag4
ag4
ag4
ag4
ag4
ag4
ag4
ag4
ag4
ag4
ag4
ag4
ag4
ag4
ag4
ag4
ag5
ag5
ag5
ag5
ag32
ag32
ag32
ag32
ag32
ag32
ag32
ag32
ag32
ag32
ag32
ag32
ag32
ag32
ag32
ag70
ag32
ag70
ag70
ag70
ag70
ag70
ag70
ag70
ag70
ag70
ag70
ag70
ag32
ag32
ag32
ag32
ag32
ag32
ag32
ag32
ag32
ag32
ag32
ag32
ag32
ag32
ag32
ag32
ag32
ag32
ag32
ag5
ag5
ag5
ag5
ag5
ag5
ag5
ag5
ag5
ag5
ag4
ag4
ag4
ag4
ag4
ag4
ag4
ag5
ag4
ag4
ag4
ag4
ag4
ag4
ag4
ag4
ag4
ag4
ag4
ag4
ag4
ag4
ag4
ag4
aa(lp102
g4
ag4
ag5
ag5
ag5
ag5
ag4
ag5
ag5
ag5
ag5
ag5
ag5
ag5
ag5
ag5
ag5
ag4
ag4
ag4
ag4
ag4
ag4
ag4
ag4
ag4
ag4
ag4
ag4
ag4
ag4
ag4
ag4
ag4
ag4
ag4
ag4
ag4
ag4
ag4
ag4
ag4
ag4
ag4
ag5
ag5
ag5
ag32
ag32
ag32
ag32
ag32
ag32
ag32
ag32
ag32
ag32
ag32
ag32
ag32
ag32
ag70
ag70
ag32
ag70
ag70
ag32
ag70
ag70
ag70
ag70
ag70
ag70
ag70
ag32
ag32
ag32
ag32
ag32
ag32
ag32
ag32
ag32
ag32
ag32
ag32
ag32
ag32
ag32
ag5
ag32
ag32
ag5
ag5
ag5
ag5
ag5
ag5
ag5
ag5
ag5
ag5
ag5
ag4
ag4
ag4
ag4
ag4
ag4
ag4
ag4
ag4
ag4
ag4
ag4
ag4
ag4
ag4
ag4
ag4
ag4
ag4
ag4
ag4
ag4
ag4
ag4
ag4
aa(lp103
g4
ag4
ag4
ag4
ag4
ag4
ag4
ag4
ag5
ag5
ag5
ag5
ag5
ag5
ag5
ag5
ag5
ag5
ag4
ag4
ag4
ag4
ag4
ag4
ag4
ag4
ag4
ag4
ag4
ag4
ag4
ag4
ag4
ag4
ag4
ag4
ag4
ag4
ag4
ag4
ag4
ag4
ag4
ag4
ag5
ag5
ag5
ag5
ag5
ag32
ag32
ag32
ag32
ag32
ag32
ag32
ag32
ag32
ag32
ag32
ag32
ag32
ag32
ag70
ag32
ag32
ag70
ag32
ag32
ag32
ag70
ag70
ag70
ag70
ag32
ag32
ag32
ag32
ag32
ag32
ag32
ag32
ag32
ag32
ag32
ag32
ag32
ag32
ag32
ag5
ag5
ag5
ag5
ag5
ag5
ag5
ag5
ag5
ag5
ag5
ag4
ag4
ag4
ag4
ag5
ag5
ag4
ag4
ag4
ag4
ag4
ag4
ag4
ag4
ag4
ag4
ag4
ag4
ag4
ag4
ag4
ag4
ag4
ag4
ag4
ag4
ag4
ag4
aa(lp104
g5
ag4
ag4
ag4
ag4
ag4
ag4
ag4
ag4
ag4
ag5
ag5
ag5
ag5
ag5
ag5
ag5
ag4
ag4
ag4
ag4
ag4
ag4
ag4
ag4
ag4
ag4
ag4
ag4
ag4
ag4
ag4
ag4
ag4
ag4
ag4
ag4
ag4
ag4
ag4
ag4
ag4
ag4
ag4
ag5
ag5
ag5
ag5
ag5
ag32
ag32
ag32
ag32
ag32
ag32
ag32
ag32
ag32
ag32
ag32
ag32
ag32
ag70
ag32
ag70
ag32
ag70
ag32
ag32
ag32
ag32
ag70
ag70
ag32
ag32
ag32
ag32
ag32
ag32
ag32
ag32
ag32
ag32
ag32
ag32
ag32
ag32
ag32
ag5
ag5
ag5
ag5
ag5
ag5
ag5
ag5
ag5
ag5
ag5
ag5
ag4
ag4
ag4
ag4
ag5
ag4
ag4
ag4
ag4
ag4
ag4
ag4
ag4
ag4
ag4
ag4
ag4
ag4
ag4
ag4
ag4
ag4
ag4
ag4
ag4
ag4
ag4
ag4
aa(lp105
g5
ag5
ag4
ag4
ag4
ag4
ag4
ag4
ag4
ag4
ag4
ag5
ag5
ag5
ag5
ag5
ag5
ag5
ag4
ag4
ag4
ag4
ag4
ag4
ag4
ag4
ag4
ag4
ag4
ag4
ag4
ag4
ag4
ag4
ag4
ag4
ag4
ag4
ag4
ag4
ag4
ag4
ag4
ag4
ag4
ag5
ag5
ag5
ag5
ag32
ag32
ag32
ag32
ag32
ag32
ag32
ag32
ag32
ag32
ag32
ag32
ag32
ag32
ag32
ag32
ag32
ag32
ag32
ag32
ag32
ag32
ag32
ag32
ag32
ag32
ag32
ag32
ag32
ag32
ag32
ag32
ag32
ag32
ag32
ag32
ag32
ag32
ag32
ag5
ag5
ag5
ag5
ag5
ag5
ag5
ag5
ag5
ag4
ag4
ag4
ag4
ag4
ag4
ag4
ag4
ag4
ag4
ag4
ag4
ag4
ag4
ag4
ag4
ag4
ag4
ag4
ag4
ag4
ag4
ag4
ag4
ag4
ag4
ag4
ag4
ag4
ag4
ag4
aa(lp106
g5
ag4
ag4
ag4
ag4
ag4
ag4
ag4
ag4
ag4
ag4
ag4
ag4
ag4
ag5
ag5
ag4
ag4
ag4
ag4
ag4
ag4
ag4
ag4
ag4
ag4
ag4
ag4
ag4
ag4
ag4
ag4
ag4
ag4
ag4
ag4
ag4
ag4
ag4
ag4
ag4
ag4
ag4
ag4
ag4
ag5
ag5
ag5
ag5
ag32
ag32
ag32
ag32
ag32
ag32
ag32
ag32
ag32
ag32
ag32
ag32
ag32
ag32
ag32
ag32
ag32
ag32
ag32
ag32
ag32
ag32
ag32
ag32
ag32
ag32
ag32
ag32
ag32
ag32
ag32
ag32
ag32
ag32
ag32
ag32
ag32
ag32
ag5
ag5
ag5
ag5
ag5
ag5
ag5
ag5
ag5
ag4
ag4
ag4
ag4
ag4
ag4
ag4
ag4
ag4
ag4
ag4
ag4
ag4
ag4
ag4
ag4
ag4
ag4
ag4
ag4
ag4
ag4
ag4
ag4
ag4
ag4
ag4
ag4
ag4
ag4
ag4
ag4
aa(lp107
g4
ag4
ag4
ag4
ag4
ag4
ag4
ag4
ag4
ag4
ag4
ag4
ag4
ag4
ag5
ag4
ag5
ag5
ag5
ag4
ag4
ag4
ag4
ag4
ag4
ag4
ag4
ag4
ag4
ag4
ag4
ag4
ag4
ag4
ag4
ag4
ag4
ag4
ag4
ag4
ag4
ag4
ag4
ag4
ag4
ag4
ag5
ag5
ag5
ag32
ag32
ag32
ag32
ag32
ag32
ag32
ag32
ag32
ag32
ag32
ag32
ag32
ag32
ag32
ag32
ag32
ag32
ag32
ag32
ag32
ag32
ag32
ag32
ag32
ag32
ag32
ag32
ag32
ag32
ag32
ag32
ag32
ag32
ag32
ag32
ag32
ag32
ag5
ag5
ag5
ag5
ag4
ag5
ag5
ag5
ag4
ag4
ag4
ag4
ag4
ag4
ag4
ag4
ag4
ag4
ag4
ag4
ag4
ag4
ag4
ag4
ag4
ag4
ag4
ag4
ag4
ag4
ag4
ag4
ag4
ag4
ag4
ag4
ag4
ag4
ag4
ag4
ag4
aa(lp108
g4
ag4
ag4
ag4
ag4
ag4
ag4
ag4
ag4
ag4
ag4
ag4
ag4
ag4
ag5
ag4
ag4
ag4
ag4
ag4
ag4
ag4
ag4
ag4
ag4
ag4
ag4
ag4
ag4
ag4
ag4
ag4
ag4
ag4
ag4
ag4
ag4
ag4
ag4
ag4
ag4
ag4
ag4
ag4
ag4
ag4
ag5
ag5
ag32
ag32
ag32
ag32
ag32
ag32
ag32
ag32
ag32
ag32
ag32
ag32
ag32
ag32
ag32
ag32
ag32
ag32
ag32
ag32
ag32
ag32
ag32
ag32
ag32
ag32
ag32
ag32
ag32
ag32
ag32
ag32
ag32
ag32
ag32
ag32
ag32
ag32
ag5
ag5
ag5
ag5
ag4
ag4
ag4
ag4
ag4
ag4
ag4
ag4
ag4
ag4
ag4
ag4
ag4
ag4
ag4
ag4
ag4
ag4
ag4
ag4
ag4
ag4
ag4
ag4
ag4
ag4
ag4
ag4
ag4
ag4
ag4
ag4
ag4
ag4
ag4
ag4
ag4
ag4
aa(lp109
g4
ag4
ag4
ag4
ag4
ag4
ag4
ag4
ag4
ag4
ag4
ag4
ag4
ag4
ag4
ag4
ag4
ag5
ag5
ag4
ag4
ag4
ag4
ag4
ag4
ag4
ag4
ag4
ag4
ag4
ag4
ag4
ag4
ag4
ag4
ag4
ag4
ag4
ag4
ag4
ag4
ag4
ag4
ag4
ag4
ag4
ag5
ag5
ag5
ag32
ag5
ag32
ag32
ag32
ag32
ag32
ag32
ag32
ag32
ag32
ag32
ag32
ag32
ag32
ag32
ag32
ag32
ag32
ag32
ag32
ag32
ag32
ag32
ag32
ag32
ag32
ag32
ag32
ag32
ag32
ag32
ag32
ag32
ag32
ag32
ag5
ag5
ag5
ag5
ag4
ag4
ag4
ag4
ag4
ag4
ag4
ag4
ag4
ag4
ag4
ag4
ag4
ag4
ag4
ag4
ag4
ag4
ag4
ag4
ag4
ag4
ag4
ag4
ag4
ag4
ag4
ag4
ag4
ag4
ag4
ag4
ag4
ag4
ag4
ag4
ag4
ag4
ag4
aa(lp110
g4
ag4
ag4
ag4
ag4
ag4
ag4
ag4
ag4
ag4
ag4
ag4
ag4
ag4
ag5
ag5
ag5
ag5
ag4
ag4
ag4
ag4
ag4
ag4
ag4
ag4
ag4
ag4
ag4
ag4
ag4
ag4
ag4
ag4
ag4
ag4
ag4
ag4
ag4
ag4
ag4
ag4
ag4
ag4
ag4
ag4
ag5
ag5
ag5
ag5
ag5
ag32
ag32
ag32
ag32
ag32
ag32
ag32
ag32
ag32
ag32
ag32
ag32
ag32
ag32
ag32
ag32
ag32
ag32
ag32
ag32
ag32
ag32
ag32
ag32
ag32
ag32
ag32
ag32
ag32
ag32
ag32
ag32
ag5
ag5
ag5
ag5
ag5
ag5
ag4
ag4
ag4
ag4
ag4
ag4
ag4
ag4
ag4
ag4
ag4
ag4
ag4
ag4
ag4
ag4
ag4
ag4
ag4
ag4
ag4
ag4
ag4
ag4
ag4
ag4
ag4
ag4
ag4
ag4
ag4
ag4
ag4
ag4
ag4
ag4
ag4
ag4
ag4
aa(lp111
g4
ag4
ag4
ag4
ag4
ag4
ag4
ag4
ag4
ag4
ag4
ag4
ag4
ag4
ag5
ag5
ag5
ag4
ag4
ag4
ag4
ag4
ag4
ag4
ag4
ag4
ag4
ag4
ag4
ag4
ag4
ag4
ag4
ag4
ag4
ag4
ag4
ag4
ag4
ag4
ag4
ag4
ag4
ag4
ag4
ag4
ag4
ag5
ag5
ag5
ag5
ag5
ag32
ag32
ag32
ag32
ag32
ag32
ag32
ag32
ag32
ag32
ag32
ag32
ag32
ag32
ag32
ag32
ag32
ag32
ag32
ag32
ag32
ag32
ag32
ag32
ag32
ag32
ag32
ag32
ag32
ag32
ag5
ag5
ag5
ag5
ag5
ag4
ag4
ag4
ag4
ag4
ag4
ag4
ag4
ag4
ag4
ag4
ag4
ag4
ag4
ag4
ag4
ag4
ag4
ag4
ag4
ag4
ag4
ag4
ag4
ag4
ag4
ag4
ag4
ag4
ag4
ag4
ag4
ag4
ag4
ag4
ag4
ag4
ag4
ag4
ag4
ag4
aa(lp112
g4
ag4
ag4
ag4
ag4
ag4
ag4
ag4
ag4
ag4
ag4
ag4
ag4
ag4
ag5
ag5
ag5
ag4
ag4
ag4
ag4
ag4
ag4
ag4
ag4
ag4
ag4
ag4
ag4
ag4
ag4
ag4
ag4
ag4
ag4
ag4
ag4
ag4
ag4
ag4
ag4
ag4
ag4
ag4
ag4
ag4
ag4
ag4
ag5
ag5
ag5
ag5
ag32
ag32
ag32
ag32
ag32
ag32
ag32
ag32
ag32
ag32
ag32
ag32
ag32
ag32
ag32
ag32
ag32
ag32
ag32
ag32
ag32
ag32
ag32
ag32
ag32
ag32
ag32
ag32
ag5
ag5
ag5
ag5
ag5
ag5
ag4
ag4
ag4
ag4
ag4
ag4
ag4
ag4
ag4
ag4
ag4
ag4
ag4
ag4
ag4
ag4
ag4
ag4
ag4
ag4
ag4
ag4
ag4
ag4
ag4
ag4
ag4
ag4
ag4
ag4
ag4
ag4
ag4
ag4
ag4
ag4
ag4
ag4
ag4
ag4
ag4
ag4
aa(lp113
g4
ag4
ag4
ag4
ag4
ag4
ag4
ag4
ag4
ag4
ag4
ag4
ag4
ag4
ag4
ag4
ag4
ag4
ag4
ag4
ag4
ag4
ag4
ag4
ag4
ag4
ag4
ag4
ag4
ag4
ag4
ag4
ag4
ag4
ag4
ag4
ag4
ag4
ag4
ag4
ag4
ag4
ag4
ag4
ag4
ag4
ag4
ag4
ag4
ag5
ag5
ag5
ag5
ag5
ag5
ag32
ag32
ag32
ag32
ag32
ag32
ag32
ag32
ag32
ag32
ag32
ag32
ag32
ag32
ag32
ag32
ag32
ag32
ag32
ag32
ag32
ag32
ag32
ag32
ag5
ag5
ag5
ag5
ag4
ag5
ag4
ag4
ag4
ag4
ag4
ag4
ag4
ag4
ag4
ag4
ag4
ag4
ag4
ag4
ag4
ag4
ag4
ag4
ag4
ag4
ag4
ag4
ag4
ag4
ag4
ag4
ag4
ag4
ag4
ag4
ag4
ag4
ag4
ag4
ag4
ag4
ag4
ag4
ag4
ag4
ag4
ag4
ag4
aa(lp114
g4
ag4
ag4
ag4
ag4
ag4
ag4
ag4
ag4
ag4
ag4
ag4
ag4
ag4
ag4
ag4
ag4
ag4
ag4
ag4
ag4
ag4
ag4
ag4
ag4
ag4
ag4
ag4
ag4
ag4
ag4
ag4
ag4
ag4
ag4
ag4
ag4
ag4
ag4
ag4
ag4
ag4
ag4
ag4
ag4
ag4
ag4
ag4
ag5
ag5
ag5
ag5
ag5
ag5
ag5
ag32
ag32
ag32
ag32
ag32
ag32
ag32
ag32
ag32
ag32
ag32
ag32
ag32
ag32
ag32
ag32
ag32
ag32
ag32
ag32
ag32
ag32
ag32
ag5
ag5
ag5
ag4
ag4
ag4
ag4
ag4
ag4
ag4
ag4
ag4
ag4
ag4
ag4
ag4
ag4
ag4
ag4
ag4
ag4
ag4
ag4
ag4
ag4
ag4
ag4
ag4
ag4
ag4
ag4
ag4
ag4
ag4
ag4
ag4
ag4
ag4
ag4
ag4
ag4
ag4
ag4
ag4
ag4
ag4
ag4
ag4
ag4
ag4
aa(lp115
g4
ag4
ag4
ag4
ag4
ag4
ag4
ag4
ag4
ag4
ag4
ag4
ag4
ag4
ag4
ag4
ag4
ag4
ag4
ag4
ag4
ag4
ag4
ag4
ag4
ag4
ag4
ag4
ag4
ag4
ag4
ag4
ag4
ag4
ag4
ag4
ag4
ag4
ag4
ag4
ag4
ag4
ag4
ag4
ag4
ag4
ag4
ag4
ag4
ag5
ag5
ag5
ag5
ag5
ag5
ag5
ag32
ag32
ag32
ag32
ag32
ag32
ag32
ag32
ag32
ag32
ag32
ag32
ag32
ag32
ag32
ag32
ag32
ag32
ag32
ag32
ag32
ag5
ag5
ag5
ag4
ag4
ag4
ag4
ag4
ag4
ag4
ag4
ag4
ag4
ag4
ag4
ag4
ag4
ag4
ag4
ag4
ag4
ag4
ag4
ag4
ag4
ag4
ag4
ag4
ag4
ag4
ag4
ag4
ag4
ag4
ag4
ag4
ag4
ag4
ag4
ag4
ag4
ag4
ag4
ag4
ag4
ag4
ag4
ag4
ag4
ag4
ag4
aa(lp116
g4
ag4
ag4
ag4
ag4
ag4
ag4
ag4
ag4
ag4
ag4
ag4
ag4
ag4
ag4
ag4
ag4
ag4
ag4
ag4
ag4
ag4
ag4
ag4
ag4
ag4
ag4
ag4
ag4
ag4
ag4
ag4
ag4
ag4
ag4
ag4
ag4
ag4
ag4
ag4
ag4
ag4
ag4
ag4
ag4
ag4
ag4
ag4
ag5
ag4
ag4
ag4
ag4
ag5
ag5
ag5
ag32
ag32
ag32
ag32
ag32
ag32
ag32
ag32
ag32
ag32
ag32
ag32
ag32
ag32
ag32
ag32
ag32
ag32
ag32
ag32
ag32
ag5
ag5
ag4
ag4
ag4
ag4
ag4
ag4
ag4
ag4
ag4
ag4
ag4
ag4
ag4
ag4
ag4
ag4
ag4
ag4
ag4
ag4
ag4
ag4
ag4
ag4
ag4
ag4
ag4
ag4
ag4
ag4
ag4
ag4
ag4
ag4
ag4
ag4
ag4
ag4
ag4
ag4
ag4
ag4
ag4
ag4
ag4
ag4
ag4
ag4
ag4
aa(lp117
g4
ag4
ag4
ag4
ag4
ag4
ag4
ag4
ag4
ag4
ag4
ag4
ag4
ag4
ag4
ag4
ag4
ag4
ag4
ag4
ag4
ag4
ag4
ag4
ag4
ag4
ag4
ag4
ag4
ag4
ag4
ag4
ag4
ag4
ag4
ag4
ag4
ag4
ag4
ag4
ag4
ag4
ag4
ag4
ag4
ag4
ag4
ag4
ag4
ag4
ag4
ag4
ag4
ag5
ag5
ag5
ag5
ag32
ag5
ag32
ag32
ag32
ag32
ag32
ag32
ag32
ag32
ag32
ag32
ag32
ag32
ag32
ag32
ag32
ag32
ag32
ag32
ag5
ag4
ag4
ag4
ag4
ag4
ag4
ag4
ag4
ag4
ag4
ag4
ag4
ag4
ag4
ag4
ag4
ag4
ag4
ag4
ag4
ag4
ag4
ag4
ag4
ag4
ag4
ag4
ag4
ag4
ag4
ag4
ag4
ag4
ag4
ag4
ag4
ag4
ag4
ag4
ag4
ag4
ag4
ag4
ag4
ag4
ag4
ag4
ag4
ag4
ag4
aa(lp118
g4
ag4
ag4
ag4
ag4
ag4
ag4
ag4
ag4
ag4
ag4
ag4
ag4
ag4
ag4
ag4
ag4
ag4
ag4
ag4
ag4
ag4
ag4
ag4
ag4
ag4
ag4
ag4
ag4
ag4
ag4
ag4
ag4
ag4
ag4
ag4
ag4
ag4
ag4
ag4
ag4
ag4
ag4
ag4
ag4
ag4
ag4
ag4
ag4
ag4
ag4
ag4
ag4
ag4
ag5
ag5
ag5
ag5
ag5
ag32
ag32
ag32
ag32
ag32
ag32
ag32
ag32
ag32
ag32
ag32
ag32
ag32
ag32
ag32
ag32
ag32
ag5
ag5
ag4
ag4
ag4
ag4
ag4
ag4
ag4
ag4
ag4
ag4
ag4
ag4
ag4
ag4
ag4
ag4
ag4
ag4
ag4
ag4
ag4
ag4
ag4
ag4
ag4
ag4
ag4
ag4
ag4
ag4
ag4
ag4
ag4
ag4
ag4
ag4
ag4
ag4
ag4
ag4
ag4
ag4
ag4
ag4
ag4
ag4
ag4
ag4
ag4
ag4
aa(lp119
g4
ag4
ag4
ag4
ag4
ag4
ag4
ag4
ag4
ag4
ag4
ag4
ag4
ag4
ag4
ag4
ag4
ag4
ag4
ag4
ag4
ag4
ag4
ag4
ag4
ag4
ag4
ag4
ag4
ag4
ag4
ag4
ag4
ag4
ag4
ag4
ag4
ag4
ag4
ag4
ag4
ag4
ag4
ag4
ag4
ag4
ag4
ag4
ag4
ag4
ag4
ag4
ag4
ag4
ag5
ag5
ag5
ag5
ag5
ag5
ag32
ag32
ag32
ag32
ag32
ag32
ag32
ag32
ag32
ag32
ag32
ag32
ag32
ag32
ag32
ag5
ag5
ag5
ag4
ag4
ag4
ag4
ag4
ag4
ag4
ag4
ag4
ag4
ag4
ag4
ag4
ag4
ag4
ag4
ag4
ag4
ag4
ag4
ag4
ag4
ag4
ag4
ag4
ag4
ag4
ag4
ag4
ag4
ag4
ag4
ag4
ag4
ag4
ag4
ag4
ag4
ag4
ag4
ag4
ag4
ag4
ag4
ag4
ag4
ag4
ag4
ag4
ag4
aa(lp120
g4
ag4
ag4
ag4
ag4
ag4
ag4
ag4
ag4
ag4
ag4
ag4
ag4
ag4
ag4
ag4
ag4
ag4
ag4
ag4
ag4
ag4
ag4
ag4
ag4
ag4
ag4
ag4
ag4
ag4
ag4
ag4
ag4
ag4
ag4
ag4
ag4
ag4
ag4
ag4
ag4
ag4
ag4
ag4
ag4
ag4
ag4
ag4
ag4
ag4
ag4
ag4
ag4
ag4
ag4
ag4
ag5
ag5
ag5
ag5
ag5
ag32
ag32
ag32
ag32
ag32
ag32
ag32
ag32
ag32
ag32
ag32
ag32
ag32
ag32
ag5
ag5
ag4
ag4
ag4
ag4
ag4
ag4
ag4
ag4
ag4
ag4
ag4
ag4
ag4
ag4
ag4
ag4
ag4
ag4
ag4
ag4
ag4
ag4
ag4
ag4
ag4
ag4
ag4
ag4
ag4
ag4
ag4
ag4
ag4
ag4
ag4
ag4
ag4
ag4
ag4
ag4
ag4
ag4
ag4
ag4
ag4
ag4
ag4
ag4
ag4
ag4
ag4
aa(lp121
g4
ag4
ag4
ag4
ag4
ag4
ag4
ag4
ag4
ag4
ag4
ag4
ag4
ag4
ag4
ag4
ag4
ag4
ag4
ag4
ag4
ag4
ag4
ag4
ag4
ag4
ag4
ag4
ag4
ag4
ag4
ag4
ag4
ag4
ag4
ag4
ag4
ag4
ag4
ag4
ag4
ag4
ag4
ag4
ag4
ag4
ag4
ag4
ag4
ag4
ag4
ag4
ag4
ag4
ag4
ag4
ag4
ag4
ag5
ag5
ag5
ag5
ag5
ag32
ag32
ag32
ag32
ag32
ag32
ag32
ag32
ag32
ag32
ag32
ag5
ag5
ag5
ag4
ag4
ag4
ag4
ag4
ag4
ag4
ag4
ag4
ag4
ag4
ag4
ag4
ag4
ag4
ag4
ag4
ag4
ag4
ag4
ag4
ag4
ag4
ag4
ag4
ag4
ag4
ag4
ag4
ag4
ag4
ag4
ag4
ag4
ag4
ag4
ag4
ag4
ag4
ag4
ag4
ag4
ag4
ag4
ag4
ag4
ag4
ag4
ag4
ag4
ag4
aa(lp122
g4
ag4
ag4
ag4
ag4
ag4
ag4
ag4
ag4
ag4
ag4
ag4
ag4
ag4
ag4
ag4
ag4
ag4
ag4
ag4
ag4
ag4
ag4
ag4
ag4
ag4
ag4
ag4
ag4
ag4
ag4
ag4
ag4
ag4
ag4
ag4
ag4
ag4
ag4
ag4
ag4
ag4
ag4
ag4
ag4
ag4
ag4
ag4
ag4
ag4
ag4
ag4
ag4
ag4
ag4
ag4
ag4
ag4
ag4
ag5
ag5
ag5
ag5
ag5
ag5
ag5
ag5
ag5
ag32
ag5
ag32
ag5
ag5
ag5
ag5
ag5
ag5
ag4
ag4
ag4
ag4
ag4
ag4
ag4
ag4
ag4
ag4
ag4
ag4
ag4
ag4
ag4
ag4
ag4
ag4
ag4
ag4
ag4
ag4
ag4
ag4
ag4
ag4
ag4
ag4
ag4
ag4
ag4
ag4
ag4
ag4
ag4
ag4
ag4
ag4
ag4
ag4
ag4
ag4
ag4
ag4
ag4
ag4
ag4
ag4
ag4
ag4
ag4
aa(lp123
g4
ag4
ag4
ag4
ag4
ag4
ag4
ag4
ag4
ag4
ag4
ag4
ag4
ag4
ag4
ag4
ag4
ag4
ag4
ag4
ag4
ag4
ag4
ag4
ag4
ag4
ag4
ag4
ag4
ag4
ag4
ag4
ag4
ag4
ag4
ag4
ag4
ag4
ag4
ag4
ag4
ag4
ag4
ag4
ag4
ag4
ag4
ag4
ag4
ag4
ag4
ag4
ag4
ag4
ag4
ag4
ag4
ag4
ag4
ag4
ag4
ag5
ag5
ag5
ag5
ag5
ag5
ag5
ag5
ag5
ag5
ag5
ag5
ag5
ag5
ag5
ag4
ag4
ag4
ag4
ag4
ag4
ag4
ag4
ag4
ag4
ag4
ag4
ag4
ag4
ag4
ag4
ag4
ag4
ag4
ag4
ag4
ag4
ag4
ag4
ag4
ag4
ag4
ag4
ag4
ag4
ag4
ag4
ag4
ag4
ag4
ag4
ag4
ag4
ag4
ag4
ag4
ag4
ag4
ag4
ag4
ag4
ag4
ag4
ag4
ag4
ag4
ag4
aa(lp124
g4
ag4
ag4
ag4
ag4
ag4
ag4
ag4
ag4
ag4
ag4
ag4
ag4
ag4
ag4
ag4
ag4
ag4
ag4
ag4
ag4
ag4
ag4
ag4
ag4
ag4
ag4
ag4
ag4
ag4
ag4
ag4
ag4
ag4
ag4
ag4
ag4
ag4
ag4
ag4
ag4
ag4
ag4
ag4
ag4
ag4
ag4
ag4
ag4
ag4
ag4
ag4
ag4
ag4
ag4
ag4
ag4
ag4
ag4
ag4
ag4
ag4
ag5
ag5
ag5
ag5
ag5
ag5
ag4
ag5
ag5
ag5
ag5
ag5
ag5
ag4
ag4
ag4
ag4
ag4
ag4
ag4
ag4
ag4
ag4
ag4
ag4
ag4
ag4
ag4
ag4
ag4
ag4
ag4
ag4
ag4
ag4
ag4
ag4
ag4
ag4
ag4
ag4
ag4
ag4
ag4
ag4
ag4
ag4
ag4
ag4
ag4
ag4
ag4
ag4
ag4
ag4
ag4
ag4
ag4
ag4
ag4
ag4
ag4
ag4
ag4
ag4
ag4
aa(lp125
g4
ag4
ag4
ag4
ag4
ag4
ag4
ag4
ag4
ag4
ag4
ag4
ag4
ag4
ag4
ag4
ag4
ag4
ag4
ag4
ag4
ag4
ag4
ag4
ag4
ag4
ag4
ag4
ag4
ag4
ag4
ag4
ag4
ag4
ag4
ag4
ag4
ag4
ag4
ag4
ag4
ag4
ag4
ag4
ag4
ag4
ag4
ag4
ag4
ag4
ag4
ag4
ag4
ag4
ag4
ag4
ag4
ag4
ag4
ag4
ag4
ag4
ag4
ag4
ag4
ag4
ag4
ag4
ag4
ag4
ag4
ag4
ag4
ag4
ag4
ag4
ag4
ag4
ag4
ag4
ag4
ag4
ag4
ag4
ag4
ag4
ag4
ag4
ag4
ag4
ag4
ag4
ag4
ag4
ag4
ag4
ag4
ag4
ag4
ag4
ag4
ag4
ag4
ag4
ag4
ag4
ag4
ag4
ag4
ag4
ag4
ag4
ag4
ag4
ag4
ag4
ag4
ag4
ag4
ag4
ag4
ag4
ag4
ag4
ag4
ag4
ag4
ag4
aa(lp126
g4
ag4
ag4
ag4
ag4
ag4
ag4
ag4
ag4
ag4
ag4
ag4
ag4
ag4
ag4
ag4
ag4
ag4
ag4
ag4
ag4
ag4
ag4
ag4
ag4
ag4
ag4
ag4
ag4
ag4
ag4
ag4
ag4
ag4
ag4
ag4
ag4
ag4
ag4
ag4
ag4
ag4
ag4
ag4
ag4
ag4
ag4
ag4
ag4
ag4
ag4
ag4
ag4
ag4
ag4
ag4
ag4
ag4
ag4
ag4
ag4
ag4
ag4
ag4
ag4
ag4
ag4
ag4
ag4
ag4
ag4
ag4
ag4
ag4
ag4
ag4
ag4
ag4
ag4
ag4
ag4
ag4
ag4
ag4
ag4
ag4
ag4
ag4
ag4
ag4
ag4
ag4
ag4
ag4
ag4
ag4
ag4
ag4
ag4
ag4
ag4
ag4
ag4
ag4
ag4
ag4
ag4
ag4
ag4
ag4
ag4
ag4
ag4
ag4
ag4
ag4
ag4
ag4
ag4
ag4
ag4
ag4
ag4
ag4
ag4
ag4
ag4
ag4
aa(lp127
g4
ag4
ag4
ag4
ag4
ag4
ag4
ag4
ag4
ag4
ag4
ag4
ag4
ag4
ag4
ag4
ag4
ag4
ag4
ag4
ag4
ag4
ag4
ag4
ag4
ag4
ag4
ag4
ag4
ag4
ag4
ag4
ag4
ag4
ag4
ag4
ag4
ag4
ag4
ag4
ag4
ag4
ag4
ag4
ag4
ag4
ag4
ag4
ag4
ag4
ag4
ag4
ag4
ag4
ag4
ag4
ag4
ag4
ag4
ag4
ag4
ag4
ag4
ag4
ag4
ag4
ag4
ag4
ag4
ag4
ag4
ag4
ag4
ag4
ag4
ag4
ag4
ag4
ag4
ag4
ag4
ag4
ag4
ag4
ag4
ag4
ag4
ag4
ag4
ag4
ag4
ag4
ag4
ag4
ag4
ag4
ag4
ag4
ag4
ag4
ag4
ag4
ag4
ag4
ag4
ag4
ag4
ag4
ag4
ag4
ag4
ag4
ag4
ag4
ag4
ag4
ag4
ag4
ag4
ag4
ag4
ag4
ag4
ag4
ag4
ag4
ag4
ag4
aa(lp128
g4
ag4
ag4
ag4
ag4
ag4
ag4
ag4
ag4
ag4
ag4
ag4
ag4
ag4
ag4
ag4
ag4
ag4
ag4
ag4
ag4
ag4
ag4
ag4
ag4
ag4
ag4
ag4
ag4
ag4
ag4
ag4
ag4
ag4
ag4
ag4
ag4
ag4
ag4
ag4
ag4
ag4
ag4
ag4
ag4
ag4
ag4
ag4
ag4
ag4
ag4
ag4
ag4
ag4
ag4
ag4
ag4
ag4
ag4
ag4
ag4
ag4
ag4
ag4
ag4
ag4
ag4
ag4
ag4
ag4
ag4
ag4
ag4
ag4
ag4
ag4
ag4
ag4
ag4
ag4
ag4
ag4
ag4
ag4
ag4
ag4
ag4
ag4
ag4
ag4
ag4
ag4
ag4
ag4
ag4
ag4
ag4
ag4
ag4
ag4
ag4
ag4
ag4
ag4
ag4
ag4
ag4
ag4
ag4
ag4
ag4
ag4
ag4
ag4
ag4
ag4
ag4
ag4
ag4
ag4
ag4
ag4
ag4
ag4
ag4
ag4
ag4
ag4
aa(lp129
g4
ag4
ag4
ag4
ag4
ag4
ag4
ag4
ag4
ag4
ag4
ag4
ag4
ag4
ag4
ag4
ag4
ag4
ag4
ag4
ag4
ag4
ag4
ag4
ag4
ag4
ag4
ag4
ag4
ag4
ag4
ag4
ag4
ag4
ag4
ag4
ag4
ag4
ag4
ag4
ag4
ag4
ag4
ag4
ag4
ag4
ag4
ag4
ag4
ag4
ag4
ag4
ag4
ag4
ag4
ag4
ag4
ag4
ag4
ag4
ag4
ag4
ag4
ag4
ag4
ag4
ag4
ag4
ag4
ag4
ag4
ag4
ag4
ag4
ag4
ag4
ag4
ag4
ag4
ag4
ag4
ag4
ag4
ag4
ag4
ag4
ag4
ag4
ag4
ag4
ag4
ag4
ag4
ag4
ag4
ag4
ag4
ag4
ag4
ag4
ag4
ag4
ag4
ag4
ag4
ag4
ag4
ag4
ag4
ag4
ag4
ag4
ag4
ag4
ag4
ag4
ag4
ag4
ag4
ag4
ag4
ag4
ag4
ag4
ag4
ag4
ag4
ag4
aa(lp130
g4
ag4
ag4
ag4
ag4
ag4
ag4
ag4
ag4
ag4
ag4
ag4
ag4
ag4
ag4
ag4
ag4
ag4
ag4
ag4
ag4
ag4
ag4
ag4
ag4
ag4
ag4
ag4
ag4
ag4
ag4
ag4
ag4
ag4
ag4
ag4
ag4
ag4
ag4
ag4
ag4
ag4
ag4
ag4
ag4
ag4
ag4
ag4
ag4
ag4
ag4
ag4
ag4
ag4
ag4
ag4
ag4
ag4
ag4
ag4
ag4
ag4
ag4
ag4
ag4
ag4
ag4
ag4
ag4
ag4
ag4
ag4
ag4
ag4
ag4
ag4
ag4
ag4
ag4
ag4
ag4
ag4
ag4
ag4
ag4
ag4
ag4
ag4
ag4
ag4
ag4
ag4
ag4
ag4
ag4
ag4
ag4
ag4
ag4
ag4
ag4
ag4
ag4
ag4
ag4
ag4
ag4
ag4
ag4
ag4
ag4
ag4
ag4
ag4
ag4
ag4
ag4
ag4
ag4
ag4
ag4
ag4
ag4
ag4
ag4
ag4
ag4
ag4
aa(lp131
g4
ag4
ag4
ag4
ag4
ag4
ag4
ag4
ag4
ag4
ag4
ag4
ag4
ag4
ag4
ag4
ag4
ag4
ag4
ag4
ag4
ag4
ag4
ag4
ag4
ag4
ag4
ag4
ag4
ag4
ag4
ag4
ag4
ag4
ag4
ag4
ag4
ag4
ag4
ag4
ag4
ag4
ag4
ag4
ag4
ag4
ag4
ag4
ag4
ag4
ag4
ag4
ag4
ag4
ag4
ag4
ag4
ag4
ag4
ag4
ag4
ag4
ag4
ag4
ag4
ag4
ag4
ag4
ag4
ag4
ag4
ag4
ag4
ag4
ag4
ag4
ag4
ag4
ag4
ag4
ag4
ag4
ag4
ag4
ag4
ag4
ag4
ag4
ag4
ag4
ag4
ag4
ag4
ag4
ag4
ag4
ag4
ag4
ag4
ag4
ag4
ag4
ag4
ag4
ag4
ag4
ag4
ag4
ag4
ag4
ag4
ag4
ag4
ag4
ag4
ag4
ag4
ag4
ag4
ag4
ag4
ag4
ag4
ag4
ag4
ag4
ag4
ag4
aa(lp132
g4
ag4
ag4
ag4
ag4
ag4
ag4
ag4
ag4
ag4
ag4
ag4
ag4
ag4
ag4
ag4
ag4
ag4
ag4
ag4
ag4
ag4
ag4
ag4
ag4
ag4
ag4
ag4
ag4
ag4
ag4
ag4
ag4
ag4
ag4
ag4
ag4
ag4
ag4
ag4
ag4
ag4
ag4
ag4
ag4
ag4
ag4
ag4
ag4
ag4
ag4
ag4
ag4
ag4
ag4
ag4
ag4
ag4
ag4
ag4
ag4
ag4
ag4
ag4
ag4
ag4
ag4
ag4
ag4
ag4
ag4
ag4
ag4
ag4
ag4
ag4
ag4
ag4
ag4
ag4
ag4
ag4
ag4
ag4
ag4
ag4
ag4
ag4
ag4
ag4
ag4
ag4
ag4
ag4
ag4
ag4
ag4
ag4
ag4
ag4
ag4
ag4
ag4
ag4
ag4
ag4
ag4
ag4
ag4
ag4
ag4
ag4
ag4
ag4
ag4
ag4
ag4
ag4
ag4
ag4
ag4
ag4
ag4
ag4
ag4
ag4
ag4
ag4
aa(lp133
g4
ag4
ag4
ag4
ag4
ag4
ag4
ag4
ag4
ag4
ag4
ag4
ag4
ag4
ag4
ag4
ag4
ag4
ag4
ag4
ag4
ag4
ag4
ag4
ag4
ag4
ag4
ag4
ag4
ag4
ag4
ag4
ag4
ag4
ag4
ag4
ag4
ag4
ag4
ag4
ag4
ag4
ag4
ag4
ag4
ag4
ag4
ag4
ag4
ag4
ag4
ag4
ag4
ag4
ag4
ag4
ag4
ag4
ag4
ag4
ag4
ag4
ag4
ag4
ag4
ag4
ag4
ag4
ag4
ag4
ag4
ag4
ag4
ag4
ag4
ag4
ag4
ag4
ag4
ag4
ag4
ag4
ag4
ag4
ag4
ag4
ag4
ag4
ag4
ag4
ag4
ag4
ag4
ag4
ag4
ag4
ag4
ag4
ag4
ag4
ag4
ag4
ag4
ag4
ag4
ag4
ag4
ag4
ag4
ag4
ag4
ag4
ag4
ag4
ag4
ag4
ag4
ag4
ag4
ag4
ag4
ag4
ag4
ag4
ag4
ag4
ag4
ag4
aa(lp134
g4
ag4
ag4
ag4
ag4
ag4
ag4
ag4
ag4
ag4
ag4
ag4
ag4
ag4
ag4
ag4
ag4
ag4
ag4
ag4
ag4
ag4
ag4
ag4
ag4
ag4
ag4
ag4
ag4
ag4
ag4
ag4
ag4
ag4
ag4
ag4
ag4
ag4
ag4
ag4
ag4
ag4
ag4
ag4
ag4
ag4
ag4
ag4
ag4
ag4
ag4
ag4
ag4
ag4
ag4
ag4
ag4
ag4
ag4
ag4
ag4
ag4
ag4
ag4
ag4
ag4
ag4
ag4
ag4
ag4
ag4
ag4
ag4
ag4
ag4
ag4
ag4
ag4
ag4
ag4
ag4
ag4
ag4
ag4
ag4
ag4
ag4
ag4
ag4
ag4
ag4
ag4
ag4
ag4
ag4
ag4
ag4
ag4
ag4
ag4
ag4
ag4
ag4
ag4
ag4
ag4
ag4
ag4
ag4
ag4
ag4
ag4
ag4
ag4
ag4
ag4
ag4
ag4
ag4
ag4
ag4
ag4
ag4
ag4
ag4
ag4
ag4
ag4
aa(lp135
g4
ag4
ag4
ag4
ag4
ag4
ag4
ag4
ag4
ag4
ag4
ag4
ag4
ag4
ag4
ag4
ag4
ag4
ag4
ag4
ag4
ag4
ag4
ag4
ag4
ag4
ag4
ag4
ag4
ag4
ag4
ag4
ag4
ag4
ag4
ag4
ag4
ag4
ag4
ag4
ag4
ag4
ag4
ag4
ag4
ag4
ag4
ag4
ag4
ag4
ag4
ag4
ag4
ag4
ag4
ag4
ag4
ag4
ag4
ag4
ag4
ag4
ag4
ag4
ag4
ag4
ag4
ag4
ag4
ag4
ag4
ag4
ag4
ag4
ag4
ag4
ag4
ag4
ag4
ag4
ag4
ag4
ag4
ag4
ag4
ag4
ag4
ag4
ag4
ag4
ag4
ag4
ag4
ag4
ag4
ag4
ag4
ag4
ag4
ag4
ag4
ag4
ag4
ag4
ag4
ag4
ag4
ag4
ag4
ag4
ag4
ag4
ag4
ag4
ag4
ag4
ag4
ag4
ag4
ag4
ag4
ag4
ag4
ag4
ag4
ag4
ag4
ag4
aaaI16
a(dp136
g4
(I0
I0
I255
tp137
sg5
(I216
I255
I0
tp138
sg32
(I0
I192
I0
tp139
sg70
(I128
I192
I0
tp140
sg76
(I144
I128
I0
tp141
sa.